(dp0
I0
cnumpy.core.multiarray
_reconstruct
p1
(cnumpy
ndarray
p2
(I0
tp3
S'b'
p4
tp5
Rp6
(I1
(I596
tp7
cnumpy
dtype
p8
(S'S10'
p9
I0
I1
tp10
Rp11
(I3
S'|'
p12
NNNI10
I1
I0
tp13
bI00
S'B008PQL186B00EFD5L6GB00H4QMWAEB00F97Y3HAB00F0TO6J2B00EXL8DVKB000TNRKHOB00GU3X92CB00GKRU638B00H3GIGE6B005IL1RU8B00EZ8I70SB00E5PBM94B00FH1PPHKB00EFPSJ5EB00GT4LTTCB00FVZG99KB00919GAQYB00EDMZBGEB00GJ6R2Y6B009ZLJP7EB00EZ8NZM8B00EFD7P2OB009SG9IM8B009SNY2SQB00E7W71FEB009OB103WB00EU6STX0B009ZLJFECB00GU3Y9X0B00H2VU4GAB00B61YZZSB008PQL4I8B00E7W70RIB00FYEZHLEB00GNCVAB2B00908Z6YSB0092TA9U6B00ETF3E96B0097B0KBMB00BMJDOCYB00EZ89734B00EFD6XZYB00EZ8IRCQB00FEL4AD8B0098JWJ8UB009OB292SB00EFD7T02B00A43RE16B008X8WW70B00GNGOVOGB00FEL43FSB00H2VRZEYB009ZLJ7L8B00BTD39SWB00EZ8D5LOB00A1YSH5UB00A2Y6N32B0083XW414B00EZ8EMT8B00ECAGJJUB00EVC34KGB00FEL4FGUB00ED2PW7WB00AMEDXFIB00BBQGFWYB00HCUL67MB00GP7XBXUB0092T9DAIB00EFPNAKIB00ARNU2CGB00EUO6SHQB00DYCQDSYB00DZHZJTMB00EFD7X8AB0092T4WMWB008V1XMAKB009EGC4ZUB00GTZJLB4B00G9WAO2WB00EZ8ERSYB00596XPY8B00EFD6PYSB00ED4RCDWB00A406M58B00AA01RACB00C4XEYX0B00C4XF0WYB00GW8EZRSB00I1NH6MSB005PXRIUWB00EZ8O3BAB00EZ8D49MB001F92DNCB00E5PC7ZCB009DQHCQ2B00G2O1NYAB00AQ21IP8B00EN6PU7AB00ESXBO3MB0055K8BJCB00EFD6VQAB00FZ5QKUEB00A1YSCFKB00ARKCYZ2B0092TA7TEB004AOJHE2B00EFD78QWB0099SDBHSB00GCSQOJUB005GQO1W6B0098DERUYB00H2VUCS0B00ETF2XR0B00EFD6MKAB00GNGLWK2B00EFD7B6OB009Z09XVSB00EWNFQE6B00GQKM1ZAB00HQ5EAFSB00G4EZ5Y2B00EZ8EUWCB00H0CWRI4B00EZ8IIQGB0098E86Y6B0032NFX9AB005C2L686B00AP8TJTKB00G3SMQV4B007FP7SNKB00EFD6V2YB007QYUUZIB009SG9IFAB009YZWZPUB004WM81IUB00EZ8D2GWB009DQH9OWB00EP3AR6AB009ZLJC18B0085C9WMCB00ETF3H9IB00A1YS6COB00GU3X472B0090F68XYB00EY60240B00GNCWYB2B0091UF6S6B00EFD6WQOB005708HCQB00ED2PZCEB00A403U0SB00GNGOF56B00G4ENJB8B00H3USH82B00EZ8ET64B009V19IWAB00EOBCT3CB00HQ5EH88B00EFD5DF0B00GNGM4LSB00FEL3JTEB00EAYK3O0B00A8MSFRKB00EZ891EEB00FDND2EUB00FYEZOLCB00GDQR594B00EFD7ZG0B005K1RMDCB00GNCVSEQB009V14BNQB008SM3Z4UB00EFD6B8IB00EFD79X4B00HFD4RTKB00AA6P6ZIB00CIA7YIQB00BODMTKGB00ECAGPDAB00EZ8HFL0B00GM5UBJWB00EU6STVWB00A403P94B00EU6STVCB00E5PBC3AB00FEVPT0QB009JME4JSB00DUSH4SKB00GP2Y7E2B00EZ8I6F4B008SM3WQGB00HBYSP6OB00G4EOKMAB00684RVEUB004RHSRV6B00EFD6ZF2B00A403TKYB00F0TNV7UB00EFD58EGB003JJPZPOB00A404ZKMB00ETF370WB00G3SMQO6B005GQO432B00AA01XLKB0058DBW5QB009EGC43CB00HF4WYXAB00FEL2TBIB00EY5ZZKMB00A40449YB009SNY5PGB00EKBOT8OB006KWOO2MB009DPAF5SB0098E8HUEB0092T8SPEB00EFD823KB00E5PBNQQB001PR24OMB009II4JESB00A1YS2OQB005GPHEDUB000Z3MNM0B009V19I20B00E5PCFM2B000I7WVIYB00E7W6YUCB0091UBXQAB00AWTC4AIB00LO915B4B00EZ8ESF6B005NPP9SAB00EY60C40B00EZ88GS6B00G4ENA6MB00FEL37LOB009DQIT6YB00F9EUNG8B00EFD7ZECB0059432UMB009SNXU66B0098DGIRYB005ES6HQ4B00GQKM5RYB00E5PBJLUB00HGFKODAB0083XW4H8B00FEM4YI8B009QJLYGAB005SL6G8QB00ECAGBY8B009DPAKKSB009ZLJDNAB00EFD7V6YB00G6TOITSB005GQO2CUB00HFD4RLIB009EGC626B00BBQGFFQB00AAL8NUIB00ESXDF20B00EJPKE5SB00919HSM4B00A8MSG42B00ETF5YQCB00A2Y6PBMB00EFD6NO0B00G4EOSMWB00GQSSGGAB00A1YSTCQB00G4EOKU2B00EZ8ELDAB00EZ8EWQ6B008U4KR9CB008M2TX42B00HJ11G6KB00AJYJFNUB0083XW5FOB00EFD7VQ4B009ZLJWCCB00HGFKO9OB009ZLJ27CB00GNCW4XUB00G4EOYQMB00A2Y6J4AB0091KXI4KB00ETF31BMB00EZ8EUB8B00EZ8DCZ8B008X8WVWQB00FEL3N9KB00EAYJZGMB0091KXFZWB00EZ8D8G6B00DULQQ18B00EJPKRFKB00GP840JSB005C2KKV0B0091UEQ7SB00FPUX7FAB00EQQYYAQB00ESXDBO2B009SNXZWAB00FDWQ9RSB005FSMEL0B00H2VTVSCB0098GA804B003FMVKBSB00EUO6YO8B00GX0RMHUB00EZ8EPQ8B005Q37UYKB00G2O2VPUB006LR2ILUB00EFD7N3KB009SNXX2CB00BWBN32IB004QMKRL0B003VZEDRCB00E5PCBFSB008K5PYV2B005HELK94B00H452EJ4B00EZ8AYUOB00A8NT56OB00HGH6GXAB00FKI0SFYB0091UF03WB00EE4AJHMB00EZ89090B00EFD5JE0B009DQGZZGB0057LKXZOB00FEL451UB00E6G9JVAB00FEVPXOSB00EZ8BDP4B00AA01VHQB00FEVQ0EAB0054TBPCEB00ED2PYMKB00EOQGEVUB00AV9ME2WB00AEEZS86B009OB1YNIB00G9K2TWCB0092SXGG6B00G3IND4IB00EZ8BZTIB00EZ894UAB00G4EP1NMB009ZLJJJ8B0092T9JEIB00HLR5O24B0092SZS8AB00EUO6RNQB00BWBRK7CB0090FFXMGB00G418ESEB00EZ8JDO2B00G4EOVEWB00BSXMDX0B00CIA8ANOB0059433OCB005IH9TY8B00EJPL02OB00AWKM5C4B009V19MH6B00GME0S5KB0091IBS26B009DPAN50B00EFD6E6WB00EZ8EXTMB00BJFUVNQB00A404FBQB009N67F46B005GQO3TMB0087TAQ9GB0069WBIOKB00H2VSLEMB0092T9M0OB00EZ8O2FMB00E7W6ZCOB00EZ8GN9KB00ET7GRNEB005GQO4K0B0099JECFMB009ZLKAPUB00EZ8O3MEB005C2L3FCB00E5PBGPEB00G5PCU6GB0083XW58GB00EFD5J1SB00GJYQ8NOB0090FDZ8AB005FSMEG0B009DPAMCEB005GQO4OQB0091UF0LOB00EZ8GTKSB00JJ4PDBYB00GJ44KNYB00FK2EJ64B00FKI3DXSB00H2VTO5CB00A8MS6NSB0090FFKJWB008M2TM0MB008SM3P5OB00G4EOWVYB00FEVPMGCB00H3USAO8B00GNGOR7MB00GVMWSEWB00A006TS2B00BQZO0EKB00H2VS83GB00DYCQGA4B00G4EO63SB00EXL6ZJMB00H6BW0KOB007ZUSGEUB00EXL7YPGB00EKZK3KIB00E5PC5HMB009MBAX3WB00F7NSLPQB00EZ8D4YCB00EFD6ZPCB009SG9JWMB00G5STTBCB00EUO6QTGB007R5787YB00CIA7YZYB00BITS08QB009FJDKGSB00EZ89L76B00EZ8DCJEB009DPAL8YB00CMX1TJEB00FYEZPRKB005FCTPL8B00FZ36LR8B00EFD6TWQB00ETF2S3YB005PXRN5WB007K98286B00CJ06ZWGB0091KXHSWB008PQL1UEB0058FNUCMB005GQO31KB00E7Y8I0OB00EU6STUIB00EFD7RHMB00ESXBMB6B00EUO6ZE2B009DPAH4MB00FER1ZIKB00DULQQJAB00ADQB10YB00DZI1Q0CB00G2O1M5UB0041SZBB0B00G9PW00IB00FKH2BCIB00AWTC6T2B00EZ8CFIIB00A8MSK1GB00ED2PWWCB00G5PCF8OB00AGL0PX0B00E9GST0YB00EOQGDG6B009OB1VUOB00EUO6UIIB00F4F88UKB009ZLJ6NMB009EGC5O0B000KGIU2OB00AJVVBZIB00EZ8GRN2B00GHGXM9MB00AAL8O20B00AEE75CSB00G4EOBJWB00EXL4D9QB008K5PBZGB00EFD6D8GB009DPAD64B00EFD57HYB00GS78W4UB00FEL4DR6B00EFPN7J2B00G2DBEK4B00EFD5IMIB005CKQD5YB0083XW522B00GSX1QA6B00EZ88J5GB009ZLKNTIB00EZ8CROUB00H2VSP6QB00EFD7YIOB00AA01SKGB0092T7RZQB007ZUS64UB00EZ8D942B00FCH1A2SB00AP7EAFEB0085O4VDKB00E5PBHSKB009WD0QGYB009G3YXTGB00JJ4PDY6B00G9PW0NUB008M2TUK4B00AGL0U2GB00GU3XAU8B008UYSG54B00F02DVL8B00J3C6X48B00H8BN73GB00FVZG77YB00AAL8NVCB00E9GSLQGB004OUJX2SB005CKQDCWB00GNGOHOKB00H2VVCT8B00ESXIJGCB009SG9I5AB00FZ3XMD4B00FKGYWX0B00B61Z2Q4B0092TACPSB0097D0U10B00A403IPUB00EFD6SC2B00EZ8EVI0B009MBBOY4B00GNGO6KAB00HLR5NBGB00E5PBKUAB00G4EOPESB00G2O3KDWB00DVS1GWYB009DQHU9QB007FP7RV8B00E5PBW4EB003WL5CESB00E5PCA04B00EFD6TD0B00G4EO4MGB00A02VKN4B00GNCWM9QB005FZNRW8B00EZ8AVLQB008M2TVASB00EFD70KQB00EZ8GKT8B00FEL2W4CB00E9PO1FCB00DZI03JWB008M2TYKUB00AYM27HSB00EOQGDZCB00E5PCCPCB009AGB9IWB00ETF5NJUB00EZ8DBJKB00BTD5872B00E5PCBKSB008O2LYR4B00EJZSR7UB009SG9JJAB009EGC5AOB009G45ZXSB00E0UF30SB00AMEBZVWB009N68SISB00ESXCERMB0097DL406B00FJ6DFNEB00GM5UADOB005PILBQOB00FDNCXN6B00FZ5QEAUB00A2Y6NO6B00EZ8CVZ0B00A4054DEB00F9IY7XEB005DSI4NY'
p14
tp15
bsI1
g1
(g2
(I0
tp16
g4
tp17
Rp18
(I1
(I439
tp19
g11
I00
S'B0059BO6ZUB00D8VL6Y2B004C6WK5QB004BGSO3YB002Y0HZK2B00EZ848J2B000B6E8ISB009DQ3KY0B004C6KSYGB009AFY8MWB0058Y9K7MB008B0ZQ5UB00GM45TDGB003Z4R9RUB007JNFMYKB004J172IEB008KWG0MCB002PZTK5YB007JNFLEGB009DLJAI0B00A8J9D9WB004UOFETOB009DLANJKB005LC5T1CB00EYPJI0KB0034HK0L0B007M2LZ80B009LLXBB4B0051S6L7WB00ED867E8B004NQY5BCB008RKFQ1IB004BGW3O0B00DRM32KIB000X3Z6KSB00CICWOFWB00C66MZFEB004TEOXFGB006N02HTSB005JIBMGYB000FS49JUB0091PAEYCB009AG4PW4B007JNH8WEB00ET4PYBIB00BU8E804B00H95O8FMB005JIBNC2B000A1J5BEB003DARCKAB007JNFND0B002PZZ17UB004U4E72YB007JMZ4A8B003BQL0PEB00DEUCCI6B007JNH7IEB005C2LDPMB008B111F8B004UTQ4TIB00BSQZF14B0033WNGSUB004DBW942B0033WDLCQB004JPWXNYB007JNH7L6B002PZZ152B001L46NVYB005U8FGDSB0058YCY9SB009DLMFDCB00BU8E6T2B00I80YCTYB0058Y5YHWB004NQW5AUB006NAIRBAB004U4E7EMB009AG4QLEB002L4LQISB005P2I0D2B0051S67NAB00BJF5WUIB007JNHAQIB000FAD4JEB00HNYDZWGB0033WJB3EB000WH7CS4B005T4GWIGB0097547QWB007JMVFYMB0051S6PR8B00BSOOXSMB00579H0BQB004DDRAH6B008RKFQ9AB0044A5U5MB002OITH3CB00AWY8BQ4B001L2PTYSB0029OFGJAB004FW0FOAB004UTNANGB003BQL18AB004BGUGFIB0059AN91SB00HNYE1QKB004BGW426B0002PWQZKB00BJF623YB0092MSH4SB0092MTZY4B000WG63L2B00A8J83PWB000WG63LMB004UTO256B000NI7HL4B004CU9JEMB004BGSLE6B00579H9NUB005T4ESYQB000X42PDSB000NIPODWB0091O0FS8B006AZ9N0CB006O0JZDSB00579HQ3SB0092MYJEUB003VHRA8YB005T4FP3OB004DBW9TMB009DLILTYB000GIJ4JEB006O0JX3KB004DDUQUOB0007Y9TO2B007JN0T9SB007JNFPVKB0051S6DI4B009AG7742B0000A1RDOB00E0WQQX4B002CSDNCAB00BMJFVXOB00BBT63EGB00C66MTHIB008REG9CYB002FG6O1GB007M2MHV4B00E5UY6PGB004D31JRSB002VLYJ12B00BLP5L5WB003BQFBL8B007JMYYKEB005T4E13OB00579GH3IB007JMYB84B004DDYG5AB007JMYDR8B0052C00HEB00BSQZG18B0092MYZB2B00DWKIH6EB00BSOPJBCB00F11KKNUB005U8FSGSB000BTL0HWB008R9A1XMB0044A3XR4B007JNFOTSB005463KZ2B00C66LGUYB007JNG4Q0B00BSR21NSB009AGCPFSB0046S0UIEB008RELXRUB004TL1QZOB002BAKD72B007JNH7BQB00EEDSLAKB00FQQ3FLYB0029OQ824B000GINO9KB00BCYZRK6B006NAIRQAB00C66MHXOB004NR206IB004BGSESEB009AG0S9SB004FVJ6K0B005LC5YS0B004DBW8CUB007JNFUAQB004WR0PHKB00C66KZ10B0033WDAXQB00A8ODLYKB001L40Y0AB007JMYFBCB003Y6T1NEB004W2587CB007JNH93WB002ALDNBKB00131IVWOB001L432JUB005DIMLDIB003Y6UWXMB007JNH4GEB0092MU0EIB000A1HBJMB003X7BDLWB002ALHFO6B009751940B00A8J8U1OB005U8DVZ8B003BQP5ICB007JMYZFSB003BQFNWUB000B6E8JWB002ALFK20B00INXW9M8B005DIHKGGB0059ANGB6B007JNFLZKB004OV861GB00BBT6DYGB004BGQXKKB000X40T6SB007VGYXU4B003Y6YOU4B004C6OTBYB004C6OTBOB0044A1UWYB007JNH9BYB003BQJG3CB008YWJCEQB002PCL6SQB0030DQIM8B00BSQZEQKB007M2LWNIB0000A1REGB007JNFTU2B005U8EWF6B0056RJDZ0B0029OCALCB007KHYYGCB002YM5NZ4B008R9CDPGB0056RJDX2B000WH4NTUB00GCDCA7AB002YM219KB004AED7ZCB003BQL0OAB004DDRB5WB004WR0OTEB004DBZ7Z0B003BQN9H6B006AZBWQAB004RGMPGAB007JMYUCGB008RKFOTMB00BFM3KX6B0063UK5PQB00D8QCYR0B004BGUIUQB000CCBIZMB007JN14KGB004TEUH4CB0097513MSB0091PA5DCB009DLJE0EB007JMYNI2B00579K65SB0007YDMSGB005U8FHPUB00C66MHKWB0051S5WWMB003Y6T39QB004TEUH6KB007JNFVRSB001B9C43AB0033WLG32B0092MXAPOB00A8SS060B004CUBMBAB002L4NPFKB00579GZYOB007JNH6SUB000P6D1SCB009DL870MB006O0JXHQB002WR02AWB0091PA52SB0033WLG50B009AFY73WB007JNH3YMB00BJF60R2B008B103BQB007JNFPJMB007JNFW4UB004DBY4UEB0014S92JCB0058Y9FTAB007JNFMK4B00DYWZXZ8B002ALFQREB007JNFTB6B0046RU6M0B004DBY4WMB006AZBWYWB0091PAGPEB008B10GQIB005ISO78AB006O0JYOIB00A8J90OKB00579H99EB008RKFP2SB00BMKNU3QB00A8J9ATAB00GV0XT8IB000NINNDAB004FAFPISB001DZLK7SB003Y6UXCCB008RKFQ18B003BQOK8SB000NI7HMIB008RELDUCB004DC18YSB007JNFQS2B0059CHYZIB003XX9TIKB003X7BBJ6B008OLRRGMB002PZV084B005T4ES7SB003BQHAS0B0027AA7SQB005DIFZZEB002ALDNNSB001N4PT94B00BJF62SOB0091PA5W8B0052C05HEB00C66L55KB00BSQZEBUB0033WF296B005JIBL7OB00579GYGSB009AGQ69OB004BGWB8SB0033WH80MB007JNFUNIB0058Y9GGWB00E0WQT1SB005U8EUAIB004UJ42VAB000P6A6OEB004NQV6VOB005LCLJ70B002A5WJQ6B007M2MIIGB00E0WND5IB007JMYVYIB004RUHB8IB00A8ODP50B00BJF5WFSB004C6SH9EB007JNG64AB0033WH82AB0033WH82KB005DIKH5WB003XXDKI0B009755LBWB003Y6R6MMB00449ZPK8B003UY9EJ6B004BGUIR4B00BJF63GUB000T97NOSB008REHL6WB00DEU6KN4B0044A69ZWB000X42PCYB001U7T7OWB00BJF8FMAB005T4EUO4B003BQFNCUB00AAUS7DMB0091PA6P4B009AG5W08B007JNG8OIB007JNH7EIB004CV2Q00B00CC62KXAB00579JDSOB004DC35ZSB007JMYD4QB007JNH900B00GH5KKU2B00DWJ3YSGB003BQHPF8B0091PAHLWB0078O7TPAB007JNH71QB003BQFD8OB008B10SRAB002JVJAFOB005T4ERGAB00GGG7ULYB0058Y9L3UB002PZV1F6B007JNH73YB003BQJERUB004DDRCGKB0051S661SB0058Y9IQAB007M2M2XMB008727VWIB0027X4HFWB0051SE59IB002BAFGCOB004NQY59EB007JNFQBYB0091PA9TWB008B10HX0B009FP11FOB007JMYAJEB004FVSRCSB004UPKGZ0B001L3ZB4UB000X3Z6MGB003BQJ2P4B00D4PVSOKB005T5WA2MB005T4E4YUB0091NTA8U'
p20
tp21
bsI2
g1
(g2
(I0
tp22
g4
tp23
Rp24
(I1
(I371
tp25
g11
I00
S'B00GYHUU2GB005Q8O3CCB001EHDJ6KB0070ZY6YYB00EY6CEIWB006K416OYB00I2UXK9SB00AEXW7QIB00IAD6XOQB007WIHCHWB002P9SHOUB00G27U4UGB004IA6R7IB0093N7GE8B001EHDJ4CB00439UG3AB0002KZ0QMB007PT29VMB00H3VTGHCB00AEXY3JCB000BHB5RYB007DXZE1MB00FLOPO06B00GS8JQUSB00FRYA2W0B006SI7NCQB001O1PO96B00C1O0AGWB00CP637E8B00HQQK7LIB007MSJ48MB00HUFVV10B008MP7AOOB0040NELJEB005967PMGB003CQ9R76B004UNZH42B007L4V0RUB004SL1DGWB005977VGKB00G157NJOB00H5B6T9IB007L4U6YIB002DYRT3CB00IVLVJYGB00FM5JH8OB002TU3NLMB004Y3NXQ2B007PT2CJ6B007L4UZ7GB005931MG4B00B32LPJOB0007THY08B00131E3IAB00383TTWGB0058DV9T0B00AV6VIK4B00FGLQHFAB00A1OFOJMB006K5FWI4B00GA326BWB0046ZNADOB00BOXA9XKB00A4K3GH0B003X43HF0B009TB9CSMB004QP3Z1GB0059672Q0B00G476HXWB002ECN0OAB00FJ3MSA8B000RHV9A6B00G27U4QAB005PXQZP6B00594K660B004CPQC6AB005958R6KB00FO03TOAB004CPRKH0B002HHVGMAB00G476I22B000FHB9SKB00G476HZAB005969I5IB008JFW5NIB00BD5NOWWB00EJVWJ1EB00GXQHKT4B00DZMRRMYB00ESK2DZ8B00GTDJ3YGB008857ZZCB00HQQKJ98B00DQM1TAOB00GXALMKIB002KVTL3EB005967XPAB00GTJSU9YB00ACBADYUB0070ZY8B0B00H09JUG4B003MYILSYB000FGXDK8B007RCHCD2B004Y3MU16B00EZ8J3Z6B002LNAFGSB004CPKJ9GB0059P7GNKB00FH200GUB00ELFH2LAB009W4EALUB0055G3V46B00FM5JIDIB00GH5FKW0B007PT2AN4B00H5B6P4WB00EYRBZ1SB0087RMW4AB00GV11MNQB00H3N8CNOB00GYHU04EB008JFW6JQB006WW5D1QB001HSSWJ0B001EHDJ9CB00G27KZUAB009XTMQPGB00432619KB007EER0USB001NG9WSQB00166XOPKB00AULJZ6OB00DZQJXW2B00GJKS8A4B00A4PPJ8EB00563MGGCB00G27U4YCB00DMI55T8B00HV1520EB00GK5B9XQB0060OB39MB00GR9409UB00A4K3OAYB0012XIAGKB00ECSN7OCB00AV6VAN4B00G74WR9KB004JO8TH4B007PSIIZOB004CPMM8WB0079Q6LVKB00IS9O7GIB004Y3NW0YB00HUF0J0EB00G2JZOV8B00FM5JGT4B00GN5DZEEB009LLW12EB005PPID0EB005O3KQI4B007CRQPHQB00HCR7GQ0B00EWT46D2B00G9FFFTGB00GYHU3A0B00ELOJOEOB00FM5JFHWB00G27KZSWB00C9RZ624B0014Z6OXMB00BOXA8HCB00DZ75WW6B001MJNVP4B00C40R9NKB007O99ISAB009RZRAIYB0070ZY86UB00ENIMCAQB00AY1SLL0B00H5B6QDMB00HV09BRKB003OHWTY6B002X82MPSB0060OB162B00HQQKLPUB00EY6D2U6B009PQ5P5UB001EHDJ7OB004WNN4MCB007L4U3FAB00FM5JJ4QB00AULK0BSB006R4UE4KB00GY8FTO4B00JT4OCQ6B00GAZNJNOB00GCPSDWEB004TFSTTQB009RBA8XMB0040UFCCCB001EHDJ5GB004DAQ3RCB00A1FMCXWB002Z9H0GGB00EYJN6PEB006K77D3YB00B601NCWB00HSR34VAB00E1WNLXQB00FM5JGC6B001EIQRN6B00E1WNI52B005R7KZI8B00GYHVBF6B0072LV5KEB00GAZNJIYB00A2ZB5ZWB007L4U4BSB00H5B6OAMB00AV6VITAB00E7YJGR8B00GY8FXGSB005N94SNIB00FZW5DN2B005PPJ0S8B00CP63GIAB004SL1Z88B001HSFAN6B00A4K3R0GB00383TTVCB00CP63A6IB00ANKZ6OMB00GK5BCYWB0081KA80SB006ZZ81P0B003XNB3Y8B00BGAWS9YB00A4K3P1MB007ZUTCJIB00JQN4E1SB009W4EAC4B004WKAYEGB007N9E1B0B004CPMLTWB00DIH4NGYB005BA32GSB0079Q6IEAB00FM5JEDCB00H09K6DAB0053GAV3WB004CPQCHEB004QPXQCEB009430I1UB007PT2A8EB00EWT459WB004A8Q5PCB00G476HYQB002DYXCTCB004WN1UVEB004UPFU2YB005967W1KB004Y3M6TWB002JXWX4CB0081RZWLGB00AV6VHA0B0059D6CGOB0012M9UREB00AV6VB88B00DDQ3DZCB00GM2Z226B0040NEN56B002GP7UVEB00GR94CIOB00432A8XAB00563MH2UB0040L43USB00991U9XOB00F2JGXN2B0092T60LIB004JO0O1IB009XDG9GEB001IEXX3IB008YEUMW0B00HS6EQYAB007L4U3KUB0087O32COB00G27KZX2B00HEC4B7AB005PPIM8CB00EU548KEB002HO9TQ8B00H4IAJESB00AY1SO80B00A1FMCJQB002U4QA44B00JU6NSVIB003HLJETCB003T7VX3OB001EHDJ88B00I8FDWEKB00CP63FQ8B004Y3MSI6B00DCA2TZ4B00FM5JFU4B009K43TUAB00G27KZZUB00EZ8J8QKB004TQD60WB0087RMSRGB00H09K3GAB00AQ5UNBUB00F3M2L1GB004HLL69CB00ACBADAYB00FH200BUB00GTVSAUGB004Y3MPWAB00G3KQBYAB00ESNVK90B00HSH88V6B0079Q6LI8B00FM5JHZ2B00ACTTSESB007ZUTARCB00AV6VB0QB00H5NXQ4MB00CQTA8AKB003AOULHKB00GAZNJUMB00GG852PSB00ECSN7NIB00CP63298B00HZ5L5YSB00ESBFQHOB00ALOVXZQB003EUV7YQB00G27KZVYB00G27KZV4B00I2UXJYOB00IJXJWXQB004WN48E0B00FOW28E0B004U7M0WKB00GY8FWYQB007D6EL40B00131LJG4B004XUGRSCB00AQ7D9DWB00FM5JEVEB001282LROB00HQQJVCEB001EHDJGUB00H5B6TY8B004Y3NXNKB00GLYDUL0B00G476HWSB00G476HWIB00ATRPAJUB00BOXAC6EB00FRYBG34B003P7J2H2B00CP63J5UB00G27KZRSB00FM5JE0UB003OHOE9YB005ME80OMB00GL0JJ2SB00AV6VAVQB00DSVD3O8B00GS8N31G'
p26
tp27
bsI3
g1
(g2
(I0
tp28
g4
tp29
Rp30
(I1
(I573
tp31
g11
I00
S'B00AJ1A23AB005HUR5JMB00C8HCRZEB005HUR4RAB00J6MUBR0B005EHWVZQB00FO4VQO6B00G5142IYB00F3N54D2B00ANBTWE6B002QFYYMWB003ZZLTBGB00AXRCV0MB00DQSVE4YB00J0BGGJEB00FP0Z3G6B004JN08NIB0021LH61MB00F54JFDYB00IX26TG6B00F2RQE10B002TXNFXAB00CI1VD5AB00ESFUE9AB0089RUF10B00DUSENBGB009H4BFIGB005943FPEB00FMX9YIYB00GYA74QIB00GSIRGGOB00E48GQKCB001OHXAHIB007V6A1GYB00CP5Z076B008QXICEOB00F4082W4B00G3KC0V8B005GMRJS8B00564T0F6B005HURTWAB00I42A614B00BOPQVYOB0092OQJS2B0092OQN8IB005OM7BLUB008QXITOCB002IRNBZYB005HUR0REB00BNJZM4QB002UXQSC4B007V6A1A0B004HCFASEB00GXBOOCKB00BSBRPEEB001BY94U6B009TRQ7M0B006MQ1NTIB00FGP6SRIB004LYALEGB00EN6SOCSB009GXEGKCB00GG88VQ0B007HNRMIQB008OLR11IB00G3KBZ0UB00ESJ5GNAB008O31M0CB00AX43AM8B00BHRRSVYB00GGLFR9GB00FSBN70GB0092OQT9GB0092OQQASB005FEQ2JYB008PH62NOB00II8LQJUB00D08TPMIB00H4QIETWB00D0812FQB004W4TPSIB002EDAXWGB00IEG5G7EB0041E5K4WB00BLK8MLMB00BOPI07UB00H2L94B6B0092OQQ6CB007T3WYEQB0092OQQCGB007T3WXISB006P5U2OSB00D081472B00ESZAJE0B002ES4ASOB00F2RQFSCB00BPDC2ZWB000NYKLOSB009DPAQ02B0092OQU5EB0092OQOS2B006VK8LEUB004VLW3PYB00DSPPS8SB00EYNHIKOB004XU6LWEB00AF5EW2MB0092ORSKUB002VWK8H0B002RMVDFAB00GTL7Q74B00IGR00OKB008QXIB18B001922V4GB00GFY54TCB007I4KH5OB001EIPHEGB004ISIMNWB005GJCWF6B005FEQ2LCB005HURTDEB00G3SMP5GB00GXX50XAB003XT48Y4B00ABL58YQB00G514266B00825L02WB00EZKHWOIB00AX46TU8B0040Z7LT4B00ESFUEAEB00H2CA87EB00AF5FDFMB00F54JEP8B00163JMMCB00GTL6VDYB00F0N39D2B006BY1VWUB0006N53VMB004SMI0VWB00E0NT982B0091UFD5MB002QG0R2MB00G28ADZGB00C518HEIB006P5TZGOB00CR352YCB00FRU3WDKB005HURRXQB00B6RTYH6B006P5U0WWB00F54JFJIB00AQ3VN5CB001922UWOB0062MXA7KB0049VMX42B00191VJCWB00F2RQ8NYB00G28AE0UB007OCAY3AB003X45NZ2B009TY7B9QB00EN6RJBUB0062MXYY4B00EOI6210B009G3Z322B00G3KBWN0B005HUR0CEB00JUHV27YB00D080XECB00F2RQEGUB00GJRX6B8B0090FBFRSB007HNRL78B009E7OHQIB00G5SUYZWB002UXQSCEB00EVL1C2YB002UXQSCYB00EW3G8Q6B009DLJSTGB000M0JFZ4B000UVU8G0B005HIYM04B00DGC0KRWB004LYEFPCB004OC055UB002L7LPZOB005Y06W6CB006P5U18AB00BMUUCNWB00BOW1OCGB0089B5WMSB0006HFPNOB002OJ6MVQB002QFWUBOB00E4YL6DIB005HUR7RWB00CR36DJUB005O31BEMB005FEQ3E8B005OMGHR4B0092OR076B009H4BDQAB009I5QK66B0021LJ8DQB00CR352VUB006P5WHBOB005Y1FKDMB00191YQ36B00A407XROB00E0NTA4UB00479WJ54B009PV6LJOB00CHJIJ2IB008QXI5PKB00C7GCEKEB00FMCNV5CB00CR352VKB00CR36DH2B00DZQXDUAB0013K2H52B004T1C3SIB009H4BEW8B007V69Z20B005FEWKJKB0040N7XSKB00GTOA40CB00EZKHWPMB006P5U14YB00F8FCC5IB00D0815GCB003175SQUB008ZSB0AIB00GJJY7DCB00BLK8MA8B00ABL557QB00H8QIR1IB008PHPN4SB00IPJYJLYB005Y06SB6B00GCGIMZ6B0062MXWQYB00G5SVISYB007V6A5TMB00AJWZWHAB002A1E07QB001MTO180B00EK1MKVCB0062MY7POB00BMUUARAB00F54JEYEB002QFWUDCB006P5TQG8B00GTD8B0SB004AM7WT6B006P5TVRWB00BMFU2BOB00GGLFR2SB0046CDT74B0092OQYRIB0092OQVXAB006P5TCCGB00DDHDNGKB00DGC0L1CB0092OQMC0B00GTL7NWMB006P5U3AQB003H28RYOB00FGLP8JGB0091UFDKWB003ZQF5WOB00DVG92QIB00FKELVRCB002VKWU1YB00CWNA3M8B00JG5F6U4B00GJJY1ROB00G3KBUVEB002QFYYLSB00F6GFI7IB002OAO7SKB00H8ZJZJCB009FBD0IOB004671XFOB00B5SQCG2B00B02AG4WB006P5U310B00GGLFR4QB006P5TZWSB007I4KDT4B003ZQB3F2B00G3KBYMYB001GYQ0W6B00I0VHSECB0092OQVOYB009NMJQLAB006MB9KDOB0091UFE1KB009H4BBVMB0089B5UIEB005OM8MLSB00F25MC04B00G4LO8B6B00DQSVDSQB005G3PPREB00G514248B00EZKHWXEB001M68IWIB0092OQP9AB006K8FRQSB006ER2K3SB00F77WXCYB00C516664B00BLS28PKB0092OQLXAB00191VJVSB005FEQ39SB002IRNBYAB00CI0H02GB0013QZ2B2B00D36NCXAB007V6A20EB00I8UI6WSB00GGLFR82B00EYNHIS6B00595F0TWB00BPDC2ZCB003MHFNGOB006P5T8T8B00GWDU946B004SH6Y1AB008MVZ65IB0092OQJLYB00GV7A2V8B00BLK8N66B0012NVQC0B000UVU0OKB00BJPQMSOB004Z8X0AAB004SMI0MGB00AQ439LMB005HUR64QB00GXATFCAB00EZK5Z60B00AF5EW7CB00FBEO7QSB006EI7CLCB00BLK8LWCB005G3PPVAB0033RMNRUB001920RZGB00D08166QB00511POGIB005HURBXMB00GJ0RRAQB002QFYYQSB009R2UW14B00AUDSOOGB006MQ1KLYB00IEG5G6AB00EOI62XSB0062MYA2OB0092OR0VMB00FAAF7ZIB00ECL6LYCB0062MXZPCB0092OQPZEB006EI3YAUB00EPZ42KAB00G3KC0Y0B00GDDEMXYB00AQ3VMTYB007T3WY2IB00IIFS3SUB00FTNEWIOB00BJ97ON2B00AYCQLYSB00AG1GWUAB00AYCQM6KB005B4U4MOB004W4TSR6B00E49Y1MGB005HUQJL2B00C5165QKB000UVXF7OB00HZUGUA2B00I02CUDAB005HURSYOB00FPB055YB006EI3T5AB00A7NDT3AB008XQ4KHCB003H28RZ8B005HUR1AAB003PCBMQGB00BR6N9W2B00GJRUUTOB00BMFU98UB00G28ADYMB00GNDVPPMB00H2VUK1YB00AXRAC8KB006P5U2WAB0092OQWC0B00G3KBXJ8B006EI414IB001O3ATVCB005MFFZ7QB005HURSMQB00AJ1A4V0B0033RPPFMB006P5U24SB008Y1D9DWB005Y1FKHSB00EW3G8TSB003ZQB3FCB00EVL1C74B00FLBNTG0B0038KX2H2B004W4NGWYB00BMCY8VWB00FE8G5U2B002BZI12GB00BH47BWIB00DQSVC0UB00EZ70BQMB0033RNSECB005HURIYEB00BNJZM5KB000ARSIMUB00GW6AOGGB008Y1DERSB00C4VYJKKB001920RREB002QFURR8B00ESFUE72B00II6SEVKB00C7GCERMB00AF5FBH2B004VLW3FOB00163MYPYB00G3KBXS4B006P5U01SB004SMI0SUB00DGC0KQSB0006N53U8B00DQSVCYGB00CI34E8GB00H5NSPE8B002RBTXEOB00GNVUOAGB003BRNZUQB00803GRGAB0092OQXI8B005AJFR22B003H2AF0IB008Y1DDKGB006P5U1TEB00EUCHFO8B0092OQQ5IB00AF5FBBSB0062MXZCUB005O31AZCB0092OR0LMB006P5U07MB00K8AD7C0B00GIKMTCSB00IIFFEPUB0062MYAHOB00ENR751SB005G3PQ28B00IIF7CWIB00EZK60DWB00J7HKY3KB00G3KBZRSB00GN4ZROQB00HV0TTFOB005Y1FKF0B001TO76ZIB0092OQX56B0092OQTLOB002QFWUCSB004OC050AB001TEIH42B00BLS29AOB0054RJISOB002A1BBLOB00EOI5ZEKB00F77WZZYB00B4XB1D2B005OMFYXMB00CR352WEB00CR352WYB0092OQMLGB0035Y0BL6B008Y1DAHWB00AQ3VN0WB00B6CEM3CB00CR352W4B002R9M7TOB005OMEVTKB002A1BTDEB0012N7YZSB00FF9VYP6B009H4BA0OB00AQ3VMXKB00191YQ0OB002UXQSD8B002UXQSDIB00H2VUNPMB00GTOA4CUB00H2CA6ZSB00IPJYKSQB00AJ1A2YEB008QXIKSCB007V6A1OGB0062MXYOOB00DB6Y51UB007I4KE70B006P5U1NKB00G9BMOLWB00AJ1A7D0B005HUR2S6B00HSFJ308B0062MY9K2B002BWQQSUB00BMUUC8CB003CUX44OB0092OQKEKB008C2LNMMB00ABL5B0CB00E7NEEWGB00402DZGUB0091UFCM6B00CWVGPFOB005L8209KB003USYQP4B00DVG94VQB00AJ1A104B00H2VUCBMB00FA247Q6B002UXQSCOB00H4QIA6EB000UV5C0MB00G9BMRTGB001EISR66B009AC3BPKB0062MY80SB00A5Q7944B007V6A5HOB00FMCMTNCB004A9SQTYB00529EUBOB009AC3BMIB008C2M0U6B009G439MMB00BMFUA8EB00AKQ9IO8B00DKU4KZIB0092OQQI0B00I8SZVNMB00BNJZM9QB003ZQGRN0B003H2AEZYB0038KX2DGB00FN7NFI4B00ABOMDX2B00CI2BXVSB00CR36DHMB004L6ZOS2B00EOI64H2B00ICCYI5Q'
p32
tp33
bsI4
g1
(g2
(I0
tp34
g4
tp35
Rp36
(I1
(I330
tp37
g11
I00
S'B00D3A75RAB00G4EZBYQB00J5Y4L20B00GNGOM5OB00GNGPZIWB00BN617XOB00GND14DUB004IZOCCKB00CF7J7W8B00DZI8L7IB00FHBN3PQB00D3A6QGGB00FHBNW4SB00AEYFGJ2B00D3A8PKGB00G9YL9LAB0061IPMFIB004IPAAZIB00D3A88T4B00D3A6FGWB00GND1AHKB00GNNGP70B0099JDZQOB00G9YL9J2B00D3A7HAAB00G4EZHW2B005947I9IB00CO38904B00D3A6VZMB00D3A6E7WB00DOCKJNOB00E7Y9EHUB00D3A7SUOB00EY60PWOB00FYW4IEIB00HN32UQEB000AY2KXQB00G6UVU9SB00D3A8ENYB00D3A6PFSB00HSW9Z2WB00B2A4CEMB00D3A8PPGB00BN6183SB00DMEP6CSB00GNCYJYMB00GNCXQNMB00EQR0O22B00B2A4GVGB00G4ENO7WB00D3A8T4IB00G4ENPS0B00G6USN3EB00FZ9J156B003HVP2PCB00E5NS5RIB00D3A6CI8B00GNGPCUIB00G6UTHHKB004016XTMB0063LLAEAB00EY60KNSB0061IPNLQB00EH0YHMQB00JFHU7NEB00HN31312B00D3A8U7OB00DWL85QKB00DZI6QI4B00B7UAB42B00DWL85Q0B00GNGLW52B006VWR35GB0013JK408B00D3A90Z0B00BOED0T4B00FHBO5YYB00FYW4F1OB00G4ENMOCB00G4EZATCB00GNGMOM2B00F9GETZMB00G6USLK4B00JKUH9O6B00G4ENE04B00H2VTLRSB001AZR31IB00AER2OS0B00DF3OJBAB005ES6HD2B008XT3DA4B00E5NS8MKB002NREAR2B00D3A6RIIB00GNCZKPOB00D3A6AQ2B00D3A7ND6B0099RJ7U4B0042TXTUIB0061IPMT4B005NKFJEOB005BRJC10B00G4ENXTGB00F06D3IKB00G6UUWBAB00D3A8N2QB00H2VT64QB00G3STXQAB00G6UU1YSB00E5NS7W6B00GNGOCKEB0061IPL5YB00GND0N6EB00DSXB8HUB00D3A6LRUB00G9YL8JSB00G9YL8JIB00DSXB8PCB0063LL4B4B00D3A6O9AB00H5NTNEOB00E5NSA28B00G9YL9GUB00GND025GB00G9YL98IB00HN32YE2B004UEIZFEB00G6UVAEIB000AY0PISB00E5NS7XUB00DDXIECCB00CO389VIB00G4ENGWKB00G9YL8N4B00GNCXVNWB008S97SBOB00919HR4IB00HN32TDSB00F8I6SCIB00D3A792QB00GNCY0NMB00F9GF2HGB00GODDEOQB00G9YL9COB009GLK9EGB00GEB2O58B00GND1Q74B00FHBODLYB00F06D286B00D3A6P58B00D3A8QL4B00G6UVE2QB00F8I6SE6B00FGIL5H8B00D3A8LW8B00D3A8BNCB0061IPLT0B00DZI8JWAB00B2A4EO0B00G4ENJRMB00G9YL8BGB00D3A7W32B00G6US4WEB00G6URKQKB00G6UU8KUB00E5NS53CB00D3A7CP0B00AITH2L8B0099JGREGB009TB2J9GB00D3A83CQB00IWD300EB00IWD300OB008CTD7P6B00G3SSMGCB00919HT8CB00D3A7DPOB00D3A7IMMB00D3A7X4KB00FZ5QP2WB00EY60Y4SB00GNCY9PGB00IWD302WB00131M8Z0B004016N9CB00802HWZ6B00D3A69UYB00D3A6QD4B00G9YL9K6B001AZM1PGB00DSXB8OSB000WHDU8AB00GJVWETOB00D3A6ECMB00FZ5Q7V6B00GND14AIB000AUJ0MYB00G4EZ9V6B0012GPIY4B00D3A953WB00D3A8THAB00D3A6RCEB00F9GF3DOB00H2XCG4GB00915P794B004IZQITAB00D3A69QIB005O1BOHSB00DWL85REB007NGCBXIB000J4DV8KB007SP0NTIB00FSBPIDKB00FHBNH4SB00FBCIM1GB00D3A72AKB00EZ89LAIB00IWD2ZZ0B00D3A7ONKB00G9YL9P6B00G6UTAJ0B00B2A4CROB00D39LJUAB007SP0NQQB008003KOKB00FGPPGWQB00D3A7GV0B00GNGM6RKB00H2VTPSSB002A1H7K8B00FZ9IKM6B00A4MCBISB00G4ENB34B00D3A7RGEB00JFHUBGWB00919HQJOB00GNCY6AOB00D3A8F24B00D3A77XWB002FRNAXUB00D3A8RWWB00G6URXCQB00G6UTMOIB001NQ86TWB0099RNFWAB00F9GEZ74B002H9MUFAB00E5NS6W2B005MEFZQIB009O0XCNEB00GND19LCB005FEQ18GB00G9YL91KB00D3A860AB00D3A6DEQB00GNCZ8H4B003FOFYX6B00BN617WAB004012RHEB00D3A6CVUB00D3A7PVQB000LE6DNSB005ES6H3WB0054GVWFMB00865F7TUB000GH52FUB00D3A7TLWB00FHBPCIWB008X266N2B00BOED62UB00D3A8DKSB008X261ZKB00GND0XS2B00F9GF0H8B00G4EZASIB00GNCXQP0B00G6US2SKB00D3A6GQQB00F8HHD0AB00G9YL8IEB00GNGOV3CB004IUJYYQB0057X2N6EB008003S4MB00D3A716UB00D3A8JF2B00D3A962CB00I2KMJD6B005462DCSB00G9YL8MAB00G9YL8MKB005FT1GTKB00GNGPLZOB00DOCKORKB009O0XEI2B00G4ENVGQB00G6UPWDSB00D3A6G8EB00G9YL9DSB00G6USF1YB00GNCXL3WB00G4ENSPAB00GTZK47EB00IHTLN66B00F8H1I38B00D3A7AI4B00D3A8E1QB0057X2OJUB008AOXKZAB00D3A6J3GB00BOED2P6B00D3A68QOB00H3U3OQCB00G6UTVQMB00802HVN4B0057GW7JEB00D3A6N8WB00A2Z66VUB00D3A6BRUB00CE4H5BWB00D3A68W8B00D3A93RAB006MQ0WCCB00816OBV4B00D3A7MQYB00D3A7D0OB00DOCKNDKB00D3A67MOB00AEKWSGKB00701NQ3K'
p38
tp39
bsI5
g1
(g2
(I0
tp40
g4
tp41
Rp42
(I1
(I358
tp43
g11
I00
S'B00EX0JD9MB00FPTIDFKB00GT4DG4SB000G5WW46B000E96MSQB00E566KWWB008VX22W2B0019JYT5SB006L9LM74B009TFPUJ8B00E566MX4B0002PULPMB006L9LJ4AB001HPMGPOB00FA1MROQB00EJZUK3YB0053AWQFYB004BGQP44B004TJGJKSB006L9LMS8B00E566ROSB001HPMFGEB002LKC9M4B00F8MKFBYB0025XTLK0B0016CNHVKB00HP189K0B004UKLQ1SB007KJ8SIKB000MAVMS2B005460FY6B008YN9QZUB006WEGURUB005GSF05QB0020TKO1EB00275C3ECB005AU8HPAB0092T0DQQB00HP189IMB00FNHLDM4B002P9SP74B001YXQ2EUB00HNHQXTUB002FH72AWB008PQMP8QB00AM5JWGQB00H97NCTIB008I5QS46B00FA1MQPQB003RQ9FE6B0091UEBJ6B00C40WHHSB00117EA98B001HPMFTGB007KJE7YYB00EJZUEH6B000LS43OUB00GG3QNISB006L9LHJMB002LKC9KQB00EVITMOCB00C83EB3OB00GL87XF0B00GK4Z8A2B005LU8IQWB0041GJ8PWB00EM9Q05YB00ADU1GKUB001QCZLEQB0012TMDOOB005WJ93D4B00FHBP9XAB000A6XWFYB00B61W8D4B00FTKB5KUB00915VKZYB0012TIW8AB009V19V8GB0099JFHAGB002FCE5T8B0020VW6PYB001JL9ASCB00546097OB009CDJOUSB009TN16FCB000H8PT1UB00E5675VMB008PQMNKGB000RF64WGB00FHCHPWWB002LKA75UB00E566ZDGB004XWL76CB000N48WM6B006L9LCOCB0058YEZWMB003N99SD0B00CWLY2W2B00A74984IB008X5FQPSB007O985TSB00E566YLEB00475UMMUB000FMDOLUB004JKAJWGB00GG3QFAOB00CG67VEEB0044A5U84B002LK8THSB0019JYU4IB00FHCHXMYB0007YHFZWB008VX26PUB004J1706IB0010XF1UAB00GNGKPO6B004BGXW0YB008VX27UEB001HC1GYOB00DR2ARGKB00427N4MSB00BFDNT4UB002756CJYB00EVITMEWB00F3KKU34B00A2ZB778B006NIQC96B00FNHLMOSB00B61ZHZUB00ADVXL9IB0054LVJXCB005PPIFVQB00B61ZDXGB00E5668YMB004BGSCX6B002759YM6B005BA9IIOB004BGU5ZYB00CA1EQH0B005P7YN74B0050K7OAEB000GXNVX4B00DZXSOGGB001JHYKGSB004JKEIG4B00FJJLZ7EB002WBW0Z8B00FNHLL6MB004V5FZGOB00A6Z2C2IB00768XRIQB0018R7JKIB0027536SEB00FTKBJSSB00IU9QTYEB002CWFAIQB004BGQLO8B001B9EM9YB008VX2CZYB005GNU8XAB00E566VD0B00GNLR8A0B00G4SLSIAB0096E9FIEB00576G87QB00BNPGKKUB002756ASCB00E566OGYB00E566XDIB00FXNW83QB00915QK72B00E3JEES8B006L9KW7UB008X2BO3EB00EJZWHSKB00GSXN96UB006L9LP0IB002FH71LMB009TFPYJ4B008I53ZCEB001TH9ZD6B00FHCI0ZSB009TN16H0B009TNBJ8QB00D5ZO04EB00A4AWFI6B000LRX7LGB009K43EU0B00E566U2MB00E566SXSB0034OTR5IB00EVOHMLQB006NIM128B0021ZDNF6B000MXR01WB00DVMQJ1IB003R1QMAQB000EBJNBMB002757XM4B00EPQYENEB0050ONWG0B00AEKWRFMB00FHCHGBWB00FGCTPBMB006HZZ8UEB00GG3QHAWB0088VWS4EB000TISQ36B00AJYNL4OB0040VZS9SB005GNU8P8B00GG3QCXOB002755DXAB000G5WYEYB002LK8TGEB006IY3BR6B006L9LO04B008YN9VN2B000BNTYTOB00A0GVP8AB009TFQ05QB008VX2A3SB0019FO2ZEB004SSF9UGB005Z4CDNIB000G5ZTW8B007TM3JZUB0009HMBKQB00FHBON9QB005GNU8N0B00768XRXGB002LKC9JWB00GNGL2DYB000FHD1OAB0016CPKHOB00FBLYZTKB002FH510UB001HQDBJIB004BSDKOAB008VX2OJSB002LKGBO6B004ME03IYB00109WCVUB004TJMKG0B009GKVN88B006JUY8NKB005W6PWKAB000FHAU8AB00GN5J4ZIB000N48WL2B009TN16EIB00FHCHQX0B00EAZ6SJIB00HBACHGMB008VX2BHSB00CYR5R0KB009PTAAUMB00AEKWT8WB007BKOYCCB006L9LGT8B008VX24X4B00FHBOLC0B00E8MV8UCB0027569WOB00BSOQ1VYB00FZ60XFGB001GZM1XMB004BGXWPYB00EJZX0OAB002P4M8F4B00CA1EZZ8B00GNGKKKAB008X2BV64B002LKA746B00BSOQ876B00DNGQP5MB0041RFQKCB004XWL6YKB001B9AB9OB00596VN8SB0042FTIJIB009TFPVCYB00E566JFAB00EVITMHEB00EMM90EEB00CA1EY7WB00CO24ISMB00A0GVSZAB008X2BT7KB00G1XPBGSB00598M9CKB008VX2786B000FIDE9GB009TN16CUB00EJZUX0OB00ED0VK48B00GNLR9WWB00I02GXY2B008X2BVW8B0010XISFKB006L9LRHYB002FH307GB00109UKFUB00F8MKHUSB000MDX14WB00FTKAVBYB00GNGMUX0B008VX25OWB000NVRHQQB00E566SJMB00IGFBP0KB00FHCH4DMB00EPQYDFSB00DVGCBACB00EPQYDFIB001NPQDRKB00FX8NB6YB00FNHN89KB008YMNCEMB009TFPX6IB00FMBG588B000B6AZ58B00275A0D8B005DD2KESB0058YEXQUB00E566W5MB008MA2JZYB008X2B17SB00FHCH6XKB009WIWPB8B0081KA4FCB008YMNSXCB0019JYU3YB006IY2YDIB001O91X5MB001O4K3D0B000PROSWOB008YMNP1MB00E5672N8B002757Z72B00E8MV8Y8B00ESMGN3OB001HPMGTAB001RP4H56B002YS5OKWB00E566A54B003RQ8JL6B00593RUWYB00EJZWUFAB00AEKXCVUB00E566NO2B00F3CVNJWB00AWY92I0B00E566UZEB004NSSDLIB005GSF4VQB005GNU7JUB0019K0HC6'
p44
tp45
bsI6
g1
(g2
(I0
tp46
g4
tp47
Rp48
(I1
(I400
tp49
g11
I00
S'B007B33AVAB00I7STF9OB007B33AV0B00FXNZPPEB00FKH09NGB007NYF00QB00GUSNK9EB0065LV6X8B002WN2SA8B00FPCPD2IB004LY7QNKB002AKKM56B002F4PG7QB00C79LMWMB0013G5M76B009PVIKDYB00E3OD84OB00I97KDCGB00DRPG9KUB00I97KDC6B00FAAJBK0B00A7349CAB00CFXRU3AB002M3G7ICB0006848QIB009I5MWIQB009XJL2L0B00CAADBIQB00FKH0RVUB00I55Q3T4B00I97KDA8B00BIX108YB00EB42IYMB007Y3HW9IB003WM6P3OB00BQ52KG0B000AY66QIB000R3T0I8B00CBXOVI6B007SIG2EKB00A4H6GAWB002R0NF26B006B488MQB00CE4GOZ0B004HZYFCSB002UXQS8SB004EHL2QGB005C6H2YOB004HZYFOGB00ARX7C3SB00FAAJL00B002PS5FYGB00I55QD58B00FAAJEF2B00D2TUGDWB002UXQS74B0065LV5KMB0047E44AMB002OEBE3WB002PRWDVKB00CGXPPDGB00FKH0IKAB00C4XF812B00FNPK0LGB00CAAD8QGB004HZYFAAB002QECECUB008CLMIVSB00A4H6GIYB00FPCPB0MB005903XRSB00APD2Q2WB0065LUWSIB007JWRZ0AB00GM87WS2B005MG11O6B00BWSZDDIB002UXQS9CB0002TTZ1EB00FQQ4FA4B00FS1WA4KB002L08OWSB004HZYFOQB000R3X82WB00FD63U8KB00ESJ5GJOB002A66TJ8B000R3T2DGB007NYF164B002WN2S7GB00H9I7KD6B002LA3K3GB005H1DAHCB00ICCYRYIB001B2J610B005907AHCB007NM5COMB00H4EC4EUB000MC8VBGB00I97KD9YB00FAAJD4YB00BIX11LAB000WTWCUKB00FAAJA4MB00522VY9MB00H45AG5IB00FMWAUF6B00ICCYPQSB009F7PE9GB00G67PGI2B005LVDYAQB00FAAJT66B00JTMI83GB005X7K21WB00HJE9I4EB00FQQ4UAEB009A8GESAB009PVIKCAB00FAAK4GAB003H2CKN8B00756ORZGB00AQ8THE6B00GU1TD6AB009SAV67OB008KOHZM4B008CLMJ1CB003CFB8AQB00ARX7CXIB003CFB8AGB009CD87VKB004GL8Y0MB00CP5WXXKB003H2AF3KB005708C1WB008KOYG9YB00ARX7BIEB00CJJC5EYB004HZYFTQB00FD63T22B00D8FJNK2B005MG14I4B00I55Q6N2B009A8GEE4B004DJ083IB0090FCXGKB00AR59392B009B0AIZCB003CFB8CEB003CFB8COB003CFB8C4B005GPVV48B00CP5X7UIB004HZYFR8B0059070DQB005VMFJCQB00IKT271SB00E6I9QWAB00FAAJBJQB00BTPS7P0B009XVA27SB007O03XWGB00AB0ZNQAB00ICCYSHEB000JEMRYEB002Z2JXZ4B00EKNELZSB00ESFUENQB00FXHG0IQB00FAAJOOSB004W4TO16B007IR3AFAB00FEL3CB4B0002TTZUUB000OEOQYIB0065AS5SIB007U3G1FIB00A734DKSB00GMBGDYSB005LVM6S2B00A4H6GD4B009SAUW10B00FNOW6DMB00B1Y73UYB00GG7SGAWB00ICCYMGQB006B4895WB00HFHAI5IB00CFXRU6CB00CFXRU62B00C4XF5SSB00ARX7CUQB004HZYFEGB00FAAJ5YWB006GUSWIUB00FD63U7QB00B1Y73W2B00BLPN0NWB00A39FNGYB007UN3TTEB00GBR72X4B00CZG0P7KB006GJ8TJ8B00ESIXJOEB0033AGWAQB0040ZBI3EB00BIX14BCB00ESIXJO4B00C7MNCOUB005LVFQ16B007SIG0BKB009UJ5M7SB003LS5GDYB00FAAJ9Y8B005VAIO4SB00C79LM1IB00FEL2RX8B002M3G7J6B00FAAJRRCB00FMAAQCAB00HEVIQ0OB002WN2S8AB00FAAJV6EB009SAUVJ8B00CFXRU2GB000REQEYKB007B33AWEB00FAAJN9OB00FAAJTAMB00BHWWH0GB00FXHG496B00590797SB0042T29R2B002OEBE4QB002OEBE46B00ER9SNAYB009PVOVGYB0090F9WEGB007Y3HW8EB00CBXOV7MB001HLRJUUB0006846JMB008CLMISQB0006846J2B00H2XQGYMB005GJDSMMB009UIIXP2B00ENR745KB0027RBO4KB00CLY4HUMB00G18OU92B005MDYAZGB005LVDYHYB00FAAJHFEB008CN47L0B008CN45OEB008FC5VVIB002UXQS4MB0002TTZ28B002M3G7HSB00G67PLAAB002Z2JXYKB00BR8ZOT6B00FAAJVUKB005C6H5P0B009ZLWX14B00FO1MNKUB0009HHXFEB00GCDE2KSB00CE4GKG8B002UXQS6UB00CFPRQC8B00HGIA7SEB0059070OKB007Y3HXXSB00FNPK0O8B00A4H6GESB007V6A4C0B00FAAJ8M6B002WN2S6WB00FQQ3Y3IB00CGXPP9AB00CGXPP90B00I97KD8KB00I97KD8AB00I97KD80B00CBXOVJ0B00C8NQRGSB00BM70E6KB00FAAJFWOB00FEL41HSB0006846ISB005906ZGOB00FAAJEIYB005B4UAD2B009PW1S1OB00ICCYGC6B00CBXOVLSB00FEL2QNEB001REHKCOB00FAAJIVWB0065AS042B00C8NQRE0B00G8P4ORQB006B488Q2B00GG8A5OGB002A182T8B00H38VRN6B00K0O8M5GB00E6X5X1IB003WM0Y7WB00C79LL50B00BBDV3ISB00GMBGE7OB003H2CKMOB00ESIXJSUB00G15QKA2B009DQHI6QB008TI90COB00A6AABS0B009A8GC3MB005N52XXEB002WN2SBMB00FAAJX08B009I5MYMKB000I0BR7MB008CLMIWCB00FNPK0T8B00ESFUEEUB00HJE9HOKB00FMAAW4WB00FAAJFQUB00EB1NZ1UB00FAAJYWAB00BBDV3UGB00BIX0M7YB00BIX15YIB008KOHYB6B000ODV95SB0002TTZVOB00E5UYMYQB00IYVFSOKB00CJJC3P0B002LA3K3QB009SAV368B00FAAJQJQB00BIX11SIB0042T29OKB00CBXOVGIB009P0IAY4B00EK1NFEIB006SCVF44B0059079NCB002Z2JY0SB003WLZ3PQB00HGH5XVGB00DUSGQA2B005MG1254B0061XWE18B00GG7RNUGB00ESFUEOAB00FEL3THGB00412J63AB00FAAJY6GB000BLABUWB00AQ8TG7EB00FMM1PA0B000NWX83QB005907A86B00AR596JEB00EU55BU0B00BQ52KCYB00F0XA8ZYB00BBDV3SIB00CFXRU58B00J230948B00A4H6GE8B00FXHFY3IB00BLPN2E4B009B1WVMYB00AR5BR00B00FAAJHK4B002KY0FK4B001391PROB007QK2DVQB008CN44ZEB00FAAJCXQB00CFXRU76B00GG7SM5GB001PLVA0MB009ZLWUEEB00A4H6GCKB004LYEF6QB000KL7AZ2B00FAAJJ3OB0039RLO5GB00FAAJUK6B0057X2PSAB00F02CPZQB00FAAJKE2B00ESIXJN0'
p50
tp51
bsI7
g1
(g2
(I0
tp52
g4
tp53
Rp54
(I1
(I753
tp55
g11
I00
S'B005IYS5ZAB00EEIRYFSB008FC6FVIB0090XWEFCB009FBCVC0B00HEP93KMB009OGTOCQB00JIG3QTOB00IFQG2HQB009SRLLAEB00DVMI7E0B00AOAZLTGB0019RHW2WB005ZU0FCSB004RQXARIB002FCLA9GB006M3MAOIB0032DVBQYB009FBCXF0B00HUWK78GB007JLBY0IB00BK12IF8B00DAK95N0B006WUZ0MUB00BK12IA8B00ESG3C9SB002ZCGROOB0061IPABYB00JWWIBJ4B00HRBPWX0B005PEGPMIB00AKRQYWGB00ICD706OB00ESG3CA2B00ESG3CAMB00ESG3CACB005FEQ4K6B00CZDTX0IB009YZVLT6B001MBLNP2B007JLC0E2B00FHVWKBEB00ESG3C3YB00ESG3C3EB00AE81E8UB00CBT5VS4B000XKCTJWB00BFM3S24B002WTXGZSB000VRLN9EB005ORJN8OB002USIOJ4B005LU8MW2B002USIOJOB00G9BMF6GB00GGLFR7SB004W6KZCQB00DZI4UX2B006K7IFE0B00H4TFNQGB00ESG3CC0B000XKEV70B00AOAZM40B00IPJZ22OB00FZYL25SB00GJKTT0WB00G47FY86B00ESG3C5CB00ESG3C52B00AJYMGTUB00FTMMHM8B001I39GGCB0053F1AUQB00HUHZEQ6B00915QOKAB004N5RQMSB005JEX6LWB00CP663DUB00HL81E72B009II41VOB003H2DEKQB00GGLFR96B005G5S21IB00HF17KWIB00H00IPI2B00JWWIP0OB009SRP77WB00GYPM1UWB0047UXCLSB002PZTR3EB00GSK0KF6B005FEQ4GKB006K8GYOCB0092OQSDSB00FVZGKLCB0083IA6TQB007U3G4AAB00ESG3C7KB00ESG3C7AB00ECL86M2B00ESG3C70B00FNHOPIIB00BHKWZ0AB00AF5FHNAB00GIOBWAOB00DXNGIYIB00AOAZLA0B0039O04W8B0015MHBX6B004QIRBKYB00A9ZI54EB0062ECAUGB004AG9W22B002IR61R4B00J133I5GB00BFYW45YB00E0NT9O6B007VERGUAB003H2B8GIB00F11F9IGB00A3H6YYGB00B359KKMB006QO3TCKB008L6M2MEB0075A0FSAB0058XWEBMB00ECL83XYB00GYPLYLYB008QW9AR8B00ESG3C98B002P37IPAB0091QZ1L2B0064WBBQUB00ECL87W6B005OMVWPGB00AOAQL8GB00915QHB6B00GP5NV6YB004G959WAB00I80B2N8B00HWF8OHMB009DQ5G6KB00FH6Y9KYB00FMX9UXIB000J2ECWQB004CGFBLGB00EH0IFROB00CG1AY7KB00G9BMGFQB003XJBE2IB002F8FDCUB0090Y2CLCB004RQ450YB00D0812BUB009DQIUQ8B00BLKB50WB00C838TE6B004ZCW8UOB000I5T7U6B00ATUIYX6B006L154ZSB007V6A3LMB00GQJ4TP6B00GFZMUX4B00BGT5F1IB00BLS29HCB00DS0YE3IB00467QHNCB001Q9Z9SMB009G43710B009TFOU3UB00G47FYB8B007GGOX5OB00DH408UIB008N7GG0UB0062ATADUB005P9T1F6B00H8ZKB72B002OUWYGCB00FDVLC4EB00AFUEMM2B007HPQ44WB002OEBE96B00ELQANRYB00GZYKOQKB00GN1HD6OB005PHQFX4B00DJZ2NMQB0063ORI66B00GJKTVPAB0063ORK8WB005T61I9CB004FNUUKIB005OMFD42B004BOKCJ0B0098GA9DAB0039NWCYCB00JWWIA68B0062ECAS8B0092OQQYOB00AOAR0EKB00FVZGK5IB00ESG3CMAB00FFX4VIOB002FCNGDOB00IZ4YMXEB002DYX170B00HMFQ280B00ESXFJTMB00IN8NCW4B007V6A2OAB00EYRCE7CB006K4YZ4WB008S1XFYQB004SKVJIUB00FSKFOYEB009DQIUQSB0078QXTPCB0092OQR6GB0090IQLQ0B005IYQ5R0B00F4TB3Z8B00EYNHGCEB0098PIG8GB0092OQRV6B00567CU6OB00HL81UW6B004NV0DFOB00FZEVQ4AB00BMMP1XGB00BMMO4X4B00F99LOFWB00G9O63A2B00HBACBWCB0091QXPJCB00AE7ZWGQB00AOAR19OB00I52QZQSB00G624XTKB00HGFIIDSB00AAGQMEWB00GJKTMSQB0096D7IH0B00DUPWNGGB00ECL86W2B00FHNAJ74B00FFBQ9FOB00GYA7KJEB00G9YL8HUB007KI2M56B0067KRR58B0070WN9POB00CYMZRZUB00EH0IHXGB005MHH8Q0B0015MDVTOB008QW97K8B00H3USQCYB00ICCYUPYB0053F1BLEB00H4TFQ72B00AF5F6WWB004FNRYMUB00D0815AIB00GF5CJHGB00F11HC6SB002P9WTGMB009T8ARNEB003VW9942B0041WNSWUB00FMX9VNMB0039O3E6QB001280FO0B0062ATHPGB00DVGBXDIB00824MHQGB00AF5F7BCB00B639LEQB0054EROBAB004K51TCOB00G4ZVBC6B004QIPDJ0B000RF6I5OB00A716VBOB00DAK8WRKB005FVOCYEB0081G84CQB00ICSVRC2B002WTRN4SB00FNHOH6SB004IUIEECB00CZF5YFEB006WUZMBOB009F1ON6CB0057X2D78B00BHKV1AUB004ZCWBL0B00G9YL8LGB009OMHC2OB00GXCTI8EB00ECE0SPMB000YAYOPSB00C8NQR2MB0085ATB7KB00DGD4R4SB00GIOBVJ6B004H3NVKMB003ZTSP1YB00DZXSJC0B000BZ050EB0058E42F2B0094KV614B008FC6BGWB00C2DVYT4B003MVX4KCB0049H3SUOB00173AH34B000BT2UJEB00FXNV47CB0092OQQS0B00DH40APQB00AYCQL8OB00GVMZ4FMB00GJJY5GQB00B6RTYF8B00J2BB282B009EVM2GQB0053F1BFKB00GF05GIKB009MK1PXUB009TB35PSB009DU3TQKB003XJCQJIB00B6QGC7CB002CUEL2YB0041C97AWB00ACISC14B00EOHYUGKB009G4367KB00DGY6DFIB0090IQDCWB00IN8MOFUB00ECL815OB005HQ05BQB009OMQDBKB00GOJMVKIB00GGLFR0AB00E694UXOB00IPB5XJYB00IIEM8H8B002DPMSBEB00CC62GD4B00G47FY9UB00F6EE39EB00DGY6JOIB009Z088Y6B00BA3FHZEB0091QZ19YB00GGLFRBYB0039NY0TMB00B4KPD9SB002ERD612B00FVZGLZMB002USIOJEB00CQZRR58B005DNNT70B008FC81PQB00KCIF10EB002VL61BSB004ZCWAGQB00G9BMFP2B003ZV0FCYB00AYCQLRAB0065RPWCSB009FBCVBGB00CLMGXT2B006XIP3WIB00KR9GNI2B007MW6WECB0040QRA3UB0039O5I1KB00FZYL22QB00EOHZ6PYB00FVZGKY4B00CP5YSQAB00EDLYU94B000EI07M4B0027A2SWEB008AICGGAB0039O1P3UB0041WNT3IB00ICD8BASB00FFBRPSEB00D0810BCB00HBACEEWB00ICSVG6OB0000WYVSAB007VERG14B0099RIF8EB00EYNHGMEB006M3M732B00CACAST4B00EFZ3M92B00JQAPXPCB0042QTTNWB00EKNKBPCB009TB2I7OB00F2EFGIUB00GIOBXW6B00JWWIFDGB0039NY0PGB002RMVDEQB00E7YD610B004FNRYMKB007JLC6GOB001BZDXI4B009P69GGEB009FGE9L6B0057N6LOYB009AG8T3UB0042QPNBOB00GSL9T2UB0078QXAXSB00AF5F776B0057DZKO6B00GGLFR64B00EDHQI8YB0097NJSMCB0053F1CY0B0060LWJRUB00GGLFR6OB00GEHIR1MB00EF53WOCB0067ONUDMB0042QROU2B00ECL7Y7UB004TEUIWSB00G47FY90B006MQ3A94B00G624WGEB005NCQD4MB00ECL7ZYMB007V6A2DGB001284LN6B00DAFYMWOB00ESG3C2AB00GQG9LC0B00ESG3C2KB0063ORJ4MB0056RJBTSB005LU8LMIB005AONITQB002HHJZ0UB0097DJMM8B00GD4XQ8AB00ESG3CBGB001JJU27CB005T5NHY2B00EOHYTPWB0062CWI1EB00DY73J5OB009Z1CKMGB009SRPH1IB00DJVLKCOB00AYCQLLGB00D8P4HBCB003XJ9BW8B00D0813OQB00914JBSSB004KTIXPGB00FVZGLCAB00DTW26WGB00FN9W38AB00D0814U4B00HRYCG68B00JWWIIU6B007ZYYH6CB00AKRQZ20B0013LDYD0B009SRPA6UB0064WA0KSB0091I4S6EB00GYY872OB002RCY4UQB0042QMDUIB000JCU3RYB005NNR1NSB008REGZD2B007NKFG4AB003OQU28MB00BC28Z1GB00GXEK40SB00IV3ME20B00FZYL2B2B00BMMOH7CB00ESG3C6GB00AZNRAVYB00F4TB2U4B00H3N4Z76B00BPD6BCCB00H3USQ24B00GJKVJLYB008RKEHDGB00ECE52N0B005ZU0JISB008N7GT1GB00GJKUGBSB00ECE58W0B00GQR2T3WB00FOBH00IB00GQR2VFIB00756C17MB00AOAR0ZEB001RLHTPKB00I80B8YQB00IFQGGWCB005HQ04QMB00EOHZ4LUB00FVZGLM0B00F368TWWB007USQHSOB00JUSESX8B00ESG3C8OB00AD5X3WEB0006FKEWIB00BHKVZVUB008N7GLZ0B00BLS29WMB00HF17TVKB00FCH19SIB00CASDP1GB00824MHTSB00EYNHE0SB002FCJ8V8B00D080YHIB00GF05GXAB004ZCW9S0B0062ATB2AB00F6Y2AL2B002DCDCASB00BMMOEWUB00FVZGMBKB008H3ML2MB00A9X8Z78B007W10TTMB00I80B6PWB005L9XLOCB0039NWD50B00FMX9WYKB00GN1HAVWB00CASDA70B0097D2RTIB000UASQWOB004IYJPFKB00AOAZV5AB00C2FGCWQB007V6A1U0B00EOHZ5A0B0098PIG7WB00F4CEMV2B00AE85ZJOB00D36NKK0B007ND8VHGB00BLS296SB005460CX0B00FTMOUKKB0077JXCLGB00ECL81HMB00C7O0H5AB00G9BMIK4B00C515XJAB00DEU2KGUB00BPHGVFKB00FC7VP0KB0039NWD32B004W7GZNSB002OEBE82B002OEBE8MB0063ORI5WB00EOHZ3UCB008MFUCKSB00AP8T1RKB0052WE9OOB0053F1BOQB00ESG3CLGB00FSKGJ1GB009RO35PWB009SRQ0HIB000VX67KIB001D8CFVUB008N7GC1SB00IPJYV94B00GJKV3ZGB00EOHYVUKB004QINJCIB008H0QY9GB004FNTGP8B00FHVVU8SB00DR2ACMYB00F5EVQDGB000J6FGO0B00GG3QJ2SB00DTVG77MB00IZ4YNFGB0096O4WDCB00HF170H8B004FNUUN0B003YD52NAB009EVM0P4B00DR2K4PYB00E694V74B00GYPM576B00401B0KOB0033N7UHCB007MRNQDMB00EKBQXJWB00EV53YZIB002LGAG96B009IF9EPAB005T5VIXOB00BOWB764B000I7H0PIB004DGJGYIB0033RIUB8B00GG3Q6K8B003OQU2FKB00HQH1UYKB00FSKGD0IB006KWQZVAB00J82GIAMB00GJKTS62B00JLR2N30B00GSK0H6IB0097J90J2B00BFM3U22B00ICCYI42B00DGD4Y0KB0062AT8R8B00BSYJ92WB00ECE0ZAKB004RQAYAYB005MSLNAQB007568Q3UB00ECL81S6B00BC28SLSB00CP5YV5SB00G9BMGOCB00ECE171GB006M3M88QB0091I4SBOB00EYNHFAWB00GZYKVPYB009SRPQZKB0047C0XY0B0091QZ20WB005QRRDJIB00BK12I8KB007Z96JD6B002WTTQ8OB000RMGNMUB00CP5YS5GB0002A82A8B00824MHP2B0012M42GIB007IX21AYB004ZCWC6OB005ZU0H5IB00JWWI7XYB004EHUJ60B00GJKUM3KB00EOHZ7J4B00HSRO47IB00EY6DZQCB00GZYKTIIB0098YVVSYB00ATUJO2QB0040QVC6GB00GJKTTX4B0098YVX0AB00EYNHEC6B000F6BVCUB00D0814ZOB009SRQ38EB00EOHYSR6B00I55Q0WOB00IPJZ300B000G0SD4OB003HVLAMQB00769DCKSB00915QJ0KB00IPJYSUGB0058E40WCB00BOW1L2EB00HMFQ1C2B00HF7YBVAB00BFM3QQWB00CMXQCIWB00GVMZ542B00JWWIWMUB004ZCWCICB002WH48LQB00FN9W4O8B00DH403RQB0045IWL8CB006JSVTKMB005968318B00GVMZ3PSB00GY9PRXQB002WTVKM4B00FHUK6N4B00IZ4YN1AB0073FH6TSB00F00WVCUB00GIOBTIEB005LU8KW4B008H3M71CB0061IP6AYB0019HZCC4B007T5HU98B00D0816MAB00C515XY0B00FDN96SGB00DAK8ZPOB00ESG3C5WB009DQJZK8B009VM4HMUB00GSIRS8UB00ECE57JEB00GNJ7N20B00B8Y9D14B0041WNT06B0053YEOUAB00C834SNCB00JWWITLYB00AOAZLKKB00AOAZLKAB0053F1D2GB004G91KF0B006KWQP9WB005FVOA1YB00GGPXGYUB00D0817WOB00FM1Z994B00AOAZLVYB008GHJCSUB00AX403QYB0039O04VEB00GJKQXN8B006XIP3W8B00FC7VUG4B00AYCQLESB008N7GPCEB000GVEL5S'
p56
tp57
bsI8
g1
(g2
(I0
tp58
g4
tp59
Rp60
(I1
(I281
tp61
g11
I00
S'B0018OKG38B00DU7JRDGB00CLMGWM0B00EVGE6JAB000WH9C50B008003XISB0090Y2SMKB00FFQNVE6B008003OUAB00DGBTDN0B00FGOYUO2B00CO38BBQB00CFXRU30B00ICCYO4GB005T4TSPAB00DGBTDQCB00DGBTDQWB00J4LCMGGB005P4IHMYB00CO3892CB00IWD2ZZUB002Z2JXZOB00F47OON8B00I4Z9FNQB0078F7ZOOB009PCC81IB004JCA2DAB0061N3JL2B00EQ807PAB00BMMON26B008D655WGB00AS6XLDEB00BSXJDC4B00BASCQPSB00BBE1EV8B00IC6Y0HSB009FBCY8QB00I4Z9FBIB00EQ805CUB008003T82B00AWW2PYUB00I55PS36B00BMMNP7UB00AS6XLFCB00CBI2KTIB00BMMOP4MB00IHTLP14B009JJIQ36B006ZOHNG4B009MFGNXCB00C0B8I4MB006OAL7E8B004YF3QAIB00CBXOVIGB000WH9C4QB008232DA2B00EQ8JZTOB005MAGRMSB009VWVFZ2B000WH7CNOB0067OXG72B00AY4WIL6B0085OSJ0GB0064OEUKMB005PPM5OYB00AWW2JOQB00ARX77OWB00AWRQGEAB002Z2JXXGB003T009O0B00HR1YGVEB00AWRQGEKB00CBXOVMCB004PKKRQSB007KHYO3AB00EQ80G0QB006C1QVV8B00CP60TH6B00DSXB9KGB00AWRQN1GB00AWRQSM0B00CAAZDS2B00D2WLUQGB005LXFZBUB009FBCY4KB005FR2C86B000VQCU56B006C1QW94B00K5839ZAB0080041B6B006WEGXGSB00I80XEKCB003T09SNIB009FBCY6SB00AWRQPE6B00K0O9DBSB00ICCYGDAB00HF8UKCIB008232DB6B00ICCYK6SB003EYVN5AB00ITIGMUMB00FHLOAI0B002Z2JY1WB00J7EZCP8B00KIX8Z92B002Z2JY1CB00GHM9R2MB00BWSEPD2B0055DQFA6B00CHIML0AB00CH287WCB005XJIA2SB008RKF898B00CFXRU4OB00ARX79KEB00EUEBSFIB00AWRQI66B00FEUR4TQB00EQ808YKB00AWRR95AB003T09SH4B0041NPVLAB006C1QVX6B0050SKCMSB005P4HLPIB00802FZZAB005948BWGB00G518ZVOB008232DAMB0078F808EB005P7YWHUB002TNHCKWB004OB4L2OB00GA31XN4B00AWRQLLSB006ZOHQ8OB00J5QSW1EB000VV3TBUB00CP87UQMB00EY6B05KB00CO38BCKB00CO38BCAB005MAGS3GB00CFXRU2QB009FBCY8GB00C3VQ71KB008REFLX2B00K0OA3NKB00ICCYKC2B00CENPE48B0078F818IB00G9YL9KGB005N3WRP0B000WH5V82B006LKY5OAB00BSXJGW6B00F0CTWJSB00J7FDETSB0060VQT9EB00J7G2PFGB00AWRR7RKB00GMAR9XIB008652WWKB00DSXB8OIB00FNY9TUUB00FE8G2ZUB00864O5VWB0037W3AEGB000VV3SZCB00CFXRU5IB00BPB3X66B002Z2JXY0B00CBXOVFEB00JTKZVL0B00D2WLUHAB005PPM5DAB008232D9IB0058N5LX0B008B68Y6MB00EQ80CKUB00EQ80CZ0B00BPXD70QB008003SXSB00FGOYUJCB005463KC0B001FA17AGB008D655Z8B00A4M8J6GB00DU7JLXWB00CAAZFKIB006C1QVWMB00EGE8SSWB008D655XKB00864O5OOB00AICQUQSB00AWRQQWCB00I4Z9FWCB0054U7PZEB00CO38B9IB00ARX79IQB00AWRQP2IB00BWSEKP0B004PKHDISB002Z2JXYAB00CAVIPMMB0097DJHEGB00BMMOMGIB00E6XDOKKB00ARX77NIB005UNE6FMB00CBXOVNGB00DSXB9JMB004PKHD7YB000VQ3SSOB00GZ65ZUSB00BPB3XM0B0040M0522B00A6X3OW2B008REFMNGB00IAGNEWWB00CAAZKJYB00ARX78ZAB00EQ9S0PIB008FC6Q94B00D2RRYCUB00BR2XJYOB00CBXOVL8B00GY89VAMB00A4M8HGSB00A4M8CF4B008003KZEB00401BEICB00CAAZH4WB00AWRQZOGB00D2RRYAWB009RYIP7KB00AWRQX16B000VQEZO0B001FAFSZQB00AWRQK4QB007FY0B3AB0078F81PGB0047NUZMYB001BZDWMQB00BASDOFYB002Z2JY0IB00CH9WLZ4B001KWRPBYB004N8UUKAB00IGCB7VKB00H2NYE6OB00CAA95TAB00D2RRYESB008232D6GB00CH7XY84B008RKFNESB0050SKCN2B000VQCSLWB001OTYXJAB00F47ON3EB00JBHZGTSB002Z2JY2GB00F14NSP4B00E0RCKI4B004XNCN7IB0047CQQY6B00I4Z9FV8B004GL6XJ6B00D2RRYKWB008D6561QB00EQ80GMEB006DNK2PQB007DVERLMB007FYGZDAB008RKF9CEB00B2TMSSAB00FMWAVN2B0069AF0RSB00E4WJ1MIB00CBI5Z1S'
p62
tp63
bsI9
g1
(g2
(I0
tp64
g4
tp65
Rp66
(I1
(I510
tp67
g11
I00
S'B0091UELGOB00F2E81IWB007MJAKQGB005O30Y8GB0072UIUXAB00CPM414MB00355AYHGB00EY6DYKEB006P5TWVWB006P5TO2YB00HFWYPK2B005HGALYCB00A05N9R6B00ETISZPGB005G5R3KEB007RCI7LSB00JAFPN08B005G5S6GOB0091UEE1GB003C1K9A0B001K3C09UB00D4YHQ6AB005705QJIB0082CWRSQB00EEXWCKKB000JVZTK6B005R72D6AB00A1FBH8IB00HS9YELWB007W6Z0FAB00II76S6MB008M2T7VQB009F7KX92B007IK0YEWB000K79I3SB009XWV4WYB00G96FOO6B005O30Z3UB005NPPLJMB005M3AG2MB00AQ19GC6B00EO9W54MB006P5TYKGB00GCW1HIOB0044RX4U8B004MSETYYB00905KKSIB00F2JP2SEB003VCC958B00G468I8UB00FF8S1A8B00355F24QB008OZVOGWB007PSLJ0AB00AOAZLC8B006P5TY3IB005LC9XVOB006P5TX9SB00H38VRRCB00G18OU1KB006MIVP58B00EY6CMYSB009RZO96UB00BRM2F1MB009VR9V62B001948H7OB00BCMC134B00403AEJ0B008M2TGOOB004IZURXIB008OZVN0EB00BRM2QHKB008BEFW0KB005LUUKQ8B005PPIQEMB002KZ2UBKB00GCRXMEQB00CDZMUPSB009QJLVPEB009XWVDL6B00143SO4GB00HEPAUKOB006PE090GB000N23UKCB005LQ6WN2B004OC04L0B00EZ8AD1EB00ARNTG7SB00CQ9CDKSB0073LCQQAB004BR78QCB0067O1IY0B005Y1V6OEB00D4YHNYUB00C8NQRFOB00450RR1GB006GAMI2GB00GP53NDUB009IFA896B008OLTS9GB005DNO4FGB002HWF7IYB00595FXZSB00G1XLSQAB009G2TNCEB00GOE61MWB0094UPVSSB000WG93JGB008FC84OYB0097NJXSQB00E0R91CWB004NPV1GAB006P5TW76B00919I2W4B009MOX5WKB0091UD0DOB005PXHL1IB00G581KJQB005CHR66MB005HGAJWQB00DDXISF0B00F3CVN10B00EY6CTFUB000XXQUZIB00FAV815KB003I4F4LAB000IDNKKQB00G47NKHSB005O30ZEEB00DY7UVIMB0007SZRC6B00DZMY5H4B00BSYGJW0B0099U19BQB002TUFBF8B004BWJEMIB00G96FOIWB006P5TUGYB0068PFZLAB00JDTYD1GB0091L0A2MB004B4X2CEB00G18OTOSB00EY6AK56B009MMEICSB00GCSRD7WB00HFDFHLMB00FWKLZBQB00ENFB4GMB00BP5JZHSB0087LWI3GB004B4SVY8B00A8O1DH2B004B4SVYIB005IYQQ2OB0062CWHCYB005PWL9N0B00I14TDUAB005972QQAB00I02BQKSB00E3DX6FQB00E0R8YK2B00AY1SEYEB00FBCCWP8B004K157VMB0068PGB54B00GCI2EX0B00EKDVD7CB004WN6KC8B00FF8S0RWB00JMR7YRYB006P5U068B00G18OTUMB00B78Q6FWB003YLOUQ2B005O31048B00G4D3694B00CMSL7IMB005NAERTMB005G5RWBOB00C7DRM18B00F9B5DJSB00CWLX6Q0B00AZBLYTAB00E6G8718B009MOX8QIB00JGW9TB4B00905KNFSB00HGDLXM8B00BTD75L4B008M2T5A4B00BMANNEWB00AAQ1NQ4B00EXQ99ZYB00FZW3E3SB00F3CVNCYB0013PLMK8B001RDA0L8B00C8NQRLIB004BC0K1WB00454R3SYB00AY1SQVUB005KVRBJ2B009DQJWIIB00F11FWW4B000WG65VKB00F38JQJAB00GMUAZQQB0091UEHHMB00A0C290CB00DHPN6OWB005O30YFYB004TRYA9WB00B29XN7UB0068PFYJ8B00FBO59R4B00BFWWSPWB00919ETWGB008M2THNOB003YLUOVCB00EZ8IX70B003G03MLKB00C8NQRJAB00FCUMNSKB00EY6BFICB007L35C5CB00IAAQN9OB00EZ6M6PMB00CQ9CBTGB00AZOR5TAB00G9A4TLQB00DZJS1AEB00ECDJMZKB005DCIPXEB00AFBTQ3GB003YLLDOYB00FA1YZ7IB007PSLPXGB005IR3HGEB00FFUCG3YB00AMECO0SB00EKHKURMB00EARRXW2B002NWZGD4B00F8P2POGB00GMUHUHSB00FFUCELSB006P5TXQ6B00919I2LKB006P5TXFMB003TNS2KUB00JXF3YBUB009QBFCCKB005JI5PMQB00GG5267IB00FZ218QIB00BFWXBSUB004A9M2E4B00AZOR6L2B00EIRYEVCB00FFKXRDWB008OLUC8MB0075WZPUGB005LQ6WU0B00595FPWOB00GNDW6G4B00GCTOAYKB00EN6PY12B009ZXKC7OB00A3IVWT2B004WLAG34B008OZVNG8B004ADWAKGB006P5TY9MB00AFBU1LCB00B9GQQLGB0071BZJI4B00ED4RJNAB00FFKXRF0B00EKDUB34B00FFKXRFAB00G1XLND8B002MTFTG2B00595G8LGB00H7ZGDCUB00EDSPBCCB00E6X1KFGB00FF8S23EB00CP65IL8B00HFHA8SUB00FKYZ0K6B005HGAKDEB0087U97WWB005L9XOZ8B005HGAM96B009QWDG4AB00G6188SIB000WG65NIB00595GB1SB00GT2V9T4B001BDTAHYB00FUYQH6WB00AZOR4T6B007I9CEL4B00450RPMWB00F11GC4GB000A7NXAMB009IFDNPWB00H38VRSQB00EJR2KLCB00BTD744CB005PHQX0EB00A9ZQKQYB00BP5J9GKB005O30YR2B009MOXI04B005HGALAQB00454V7IGB004U7M0O8B00G3Q7080B006K8GHJYB001MKIY1YB006GAMHHWB004A9SQMQB000WG93EQB00GCIEMKSB005931K9SB00EK41Y0MB00EY6CNWYB009KTPO8AB005G5S73QB00B23429EB00JBPQJ5UB007R56YVUB00ECU0UPEB00EZ8ADKAB00GV9EQ5EB00905KJXEB00BMANMGQB0055G111GB005ER1J9KB00FIUEN2SB00ECYJYJ8B00CDZMW1AB00EWHY58KB00G1XLIBAB002MTFTMGB005HGALE2B00AZOR4MIB0037KMNFAB001V2SVPCB005N944B4B00593QEE4B00BAA0J9GB006GAMHQSB008NUSQSWB0091UE9M0B00GCT6KKMB005MUOYN2B003YLOSP0B00EAO8C9IB00FFUCH88B006P5TNV6B00A1FCUXEB00EOMBLXAB006ER76LEB00BZ5MBO2B000JSU2PQB00ARNUD20B006AXZR0YB00F92L2VAB00HPLS1JEB006W1K8HQB00ARNTMM2B006N9NVK8B00H38VRNGB00BRM2NAKB00BE322ZIB00B7AG0KGB002TSGHT4B002LMKH62B005JI5UBMB00C25JLTWB00BTD5VZGB00BDQ40PQB00G9A54QUB00E6IASQ8B009KTMVIQB0073XDV3KB00AY1SJ9OB006P5TXZ2B00919HZNQB00F11HHTKB00HGYPY0EB00B29XNKWB00IZ4YMYIB0059071NKB000WG93PAB005C2LH6MB003V6X26EB00A2UECKWB004A9UJ9OB00EAO8BZ8B005HGAK5CB004EIE4D8B00GG8AGEUB00EY6CKVSB005O316RYB00EP1CDSMB00F2JP2MUB00GIDHKJCB00F2JP2MAB00EARRYHQB00AL0IMOKB00EK42NZ2B00450UY8YB00GG85NDEB000WG93OGB00EY66NT8B0045MK55OB00C8NQRAYB00IGH7GMEB004A9UJ8KB009MOXFQQB006GAMGZAB006P5TYF6B00F2JP2CKB009ZXK33CB000IDNKK6B006IY1TWAB00AL23KCCB00HYH7T4CB009DQOFM6B00IK3DCP4B00CP65OEOB00CONVRY4B00AMRBQYAB009ZXK3VOB00450PWXQB0091UD1I8B0091UEKJCB00F9IYBXUB002BZBX76B00355D0I6B008RQS5WOB00EY6CR5CB005JI5UYOB006AXZUOWB006ORBBAQB00F8M3RBOB00EARRY7QB005L8LWLWB00G61CMDUB00JVZDJH6B005N941DAB005HGALQAB00CP64VFMB0035Y4P8QB0073LCT94B00A0BN8JYB00F2JP2G6B005Y06ZRIB000WG93X2B00FFT6G0YB0016QTDTGB006P5T7FSB00ADVVSN4B00KINAXBAB0046BOIG6B00FF8S3LUB005NUZ8POB00FFKXRCSB00AR4XJOSB00F11FX4GB00AR4XJ8YB00483558WB00FF8S42IB0068PGDZMB00BTD7MJYB00BFYAVKYB0080KTVD4B00AL23MH0B006P5TXC0B000IDLXLOB00BCLMQ9OB00EY6CQ76B00GMUATU8B00FFKXREQB00HXUVPG8B00AUHY6QMB009QBE60EB00EZSWCPOB00GIK7VFSB003YLWP3WB000STCJ1GB00EDRTRC8B004FOG3SUB002NNPI4UB00FEANAUSB00GG52ENYB00354ZVNYB00G3Q701MB00IFBB4QAB00GXW1ZQ2B005HEXTCKB00DJB7V6SB005L8LQ9UB0073XDVE4B00EY6BE60B0040NILX6'
p68
tp69
bsI10
g1
(g2
(I0
tp70
g4
tp71
Rp72
(I1
(I528
tp73
g11
I00
S'B00D3NFTIYB00A2Z5BIEB00AM482O0B005IXCQGUB00IPQX5IUB00EMMWRIKB00FM20FGUB00FHBNQZSB00FHBNNN8B00AR0NJ60B00FYWQVIEB00CO24MX8B00HJ1037IB00G7YGRQYB00AM483SAB00BMR6YVYB004EBJ2J6B00401AL90B00AJBOVZKB00E5PBYHOB00AETW8BGB008VX2S8UB00BB7ETQCB00AQ8UZWEB002M09OVCB009GKVOPUB0042QROTSB009XY4BIGB00EPQYAL0B00AQ8V0M8B007F2PZNSB008VX2XTYB0090XW5FGB00DULQLJUB001EX8IYMB009PVHQ4SB001HPMGI6B008EX970OB00D5YMVL4B00G7T98TWB00993D5G0B002WTRMM6B00BTPVET6B00FZ3WV4AB00E5PBFH8B009GKVO7IB00G0SPVFKB009GKVP0EB00EZ47I34B00IYW00A6B002WTRNGGB008X2B80IB008EX97CCB00FYWQSG4B00E5PBRBMB005V0TOM4B00DT5QNWMB0045L59REB001HPOIFAB003EITPA6B0090XW1S2B00DEU65FCB009LQYXTSB009DQ9JCCB00AEKWWNYB005S5H89IB009MRV6PAB00E5PC36AB00E5PBI6QB00DWJ3TOUB005DD2JLMB00HERS55YB001CZ79OCB00EPQYB5AB00E5PBE1AB005JRMR2SB008VX2WPYB00BW9YAM2B00EC9V7CUB00AM481JQB00FRUOLWGB005JRMMLEB00E78A8S0B005DD2JSKB008REBAYQB00DULQL3QB00ELLZ4SCB00FE3SO2YB00AWY9HMGB00E5PC3YCB00KDIY3NYB00BNPHDECB005DD2JNKB00DWKJ876B008X2BBKKB00HQRPNCAB000F877M6B00FPNX1IUB004BQ0TAKB008X2B6D2B00AVIQOG0B00CO24TQ8B009IFE4B4B00BNPHD56B00AQ8UYF2B005DD2JUSB00AM483EYB00GSXMZOMB008VX2NM6B0030MTCZYB0095VLDROB00E5PBR0SB00756ORPGB0068BZT92B0010XXILOB0040YWT2YB00ENTIQHIB004EBI6UCB00HP1G9TSB007GGP8NKB00E5PBL4AB00CH2JJXIB006BD36LAB00E0OAHYGB00A7496AYB002B5F912B00A0QLOI6B00AEKXHOMB000X7VBXKB00EP59M1YB00DWJ3XC8B003JV95JEB007I8MKEGB00024U0IGB00GWRLALSB00HP1G9UMB00E8MV8VQB00DZI5ZP4B00E4QGHDAB00GP75BOWB004JPQS6CB00F2G5GF6B00GU818ACB002TV9CGQB0007PAV20B00GMC3WM8B00ESXIJ5IB00B54QKAOB00FZVGC1KB008REHG4YB0042QNIOSB000FE7KD6B005DD2JYOB00EFD6IS6B008REFFTMB000M0CKMYB00DWG5TVOB003UYVWYGB00GIS0I6EB00AEKXF8UB00EL9SF08B008VX329OB00GK4Z5YQB00GSXN2HQB00JDQT4UYB00BNMYQRWB0099RPGPYB00AM481BOB00CF779J6B007GGOUNYB002CWBA2GB00EFD6FBQB00FZVGE9KB00DZI7FJIB00EK46FQUB00E9LYXAYB007T4Y27CB002M0J2MSB00FGD2IW4B000NI4FKAB004MN8U94B00DWJ3Y5EB00DSEZ064B00EZ6VQNUB0096T81FMB004KA7UW2B00FG5I9S4B00AEKXEQSB00EFD6HR8B00HLSQEZEB00GNGN3AEB00BNN0KJEB00ICSVIOEB008BNR4WKB00DQVZJL0B00522VWJOB008VX2XCGB00FM20GG4B00CO24T22B007F2PWJ0B009BQW65QB00E0WQTOKB00DEU0V4IB00A8NRHLOB009B7D334B008VX2Z92B008VX2QKUB00EMA5LSKB0091OSNTGB00DSEZ30MB001792UYMB00HZWJBVAB00AEKXEWCB00BHILAUSB008EX9A92B00FMVLU4CB00FHBNI56B00F4JOH1AB008VX2SX0B005LUUL4OB00BII8RPSB00BMR6ZKYB002C0M24SB008YNDOA8B004LQHQ2YB002WTXHPMB0072687O6B005S5JNV4B00DSFMPSEB002HHRGWYB00CBRNBLAB004010XWKB00B61ZL9MB00EFD6FY8B00E566JA0B009BQW5WAB00AEKXII2B001CZ38JMB0040192RMB005DD2K0CB00E00E1TMB00DF5AW5KB000E1VHE8B00BTPVG9YB00DZI7BFQB00DODPBGSB0042QNIP2B009GKVNVAB00E5PBPFUB00JBNQ63MB00BNH4AOQB00IGNRQ4QB0081K9AMUB00522VWDUB00H8GY2SUB00KFSSN9CB005JRMMF0B009S6UOAIB00FN5EC7OB004MNAO2UB00JDQDZMMB00E5PBO2YB00577W3S8B009O0WO4MB009NUR3G2B00CH2JKDMB00E566DF6B00E5PBULOB00EBY6QMCB00H01KNBIB005T62MBUB00JJZ4C0QB00CO24QV6B005G5RPVQB00BNPHCLGB001HC5N0WB00EP59PIEB00EZ8EC8EB00FI7B8M4B00DVRASLAB003IC9BACB00CTTCL8YB00AM481VYB000I5RKDWB006L52S8AB00G3DGKLQB00AWY91X6B00EU4W0GYB00EFD6BMYB001IVYK9WB00DYX06T0B009BQW7H8B008406HR8B00HX0IKH0B003DW64YSB00D9DMG1QB008LB4448B002WQWBI4B00EYJ9UHCB002KPEJYGB001EINF7WB009D97WVYB00FHBNAN6B00G0SPTBGB004018GQKB00AEKXEF4B00BNPHCHAB00H8YWIK6B00DULQN2KB00HJ10RO2B00GSXN5LYB005WZNZVOB00DP64M96B005LUUL8UB00593R9ZWB002WTVLBYB00BNPHCTIB00KFSSP5EB00AWY9LUOB00FHBNUO0B00BNPHDHYB00DWG5D60B00AA6PFKYB00AE7Z7R0B003EO77JQB005OMEKXWB009S6UMSMB00ENFAGQQB00ESXE7WCB008VX2P56B006IY3AZOB00EWBHBEQB0010KBUU8B00ED0VIFOB00A2Z5AA8B00FHBNXU6B00EFD6GOWB00ESN44G6B000E1VHEIB0054RQAHQB00CO24W10B009XY4A32B00EY6EIOAB00GHXDUIIB002WWTAE6B00BW9Y996B0061IPONSB00BOT2T0KB00FBD0BAAB004018HCIB00AE81H64B00DLQ2PJ4B005S1BRTEB00EFPPM04B0027539HMB001CZ38ISB00E5PBMNUB00E78A8TYB00AM484MKB008S9MVGGB00AEKWTFAB0096T7SX8B00BMR74P4B00GLSDHNWB00DYX0EM4B00726880EB00CO24KNAB00AEKWT46B005VDG0NCB004016EKKB005DD2JOOB00E5PBL18B009NUR542B00AM482YKB00E5PBWC6B00GSNJQFIB004BQ03OCB002WN2STEB00DODP9HOB00D3NGRQ2B007V647C8B005URI00KB001HPMEEWB000E94SKKB002F4PD4WB0046RVV9MB003CKKP2SB002WTTQKWB009O0WP6EB0000A1R6FB00A0GVULWB00E566HSEB00EPQYAECB00AVIQOD8B0090XX7T4B009IHDH0GB00GSXN442B00F2NQNP6B00AEKXHAGB00BNPHC84B00AEKXI0AB00E5PBPSWB00FDNCTEOB005JRMR7IB00DEU13Z4B009IHDK9EB009M0BYCMB009DQIBXUB007GGP4FWB00BNPHD06B00C7OMUIMB008VX32SUB004TMQNTMB005945FZMB005DD2JVWB00CO24SE6B008WMMDI0B0059PT17EB00FSBEX6SB001MBCRR0B00FDQT71OB00AM482CCB00E5PBN1GB005K1RU5CB00BNMZ2FMB00DEU3CHQB00EEL0GUKB00CO24PCGB000YV6JXMB0091NTJQIB00E00F18MB005L9XNFYB00D3NFRTUB000YR0V3UB00AQ8UWWWB00EMG2NJOB004LQGMN8B007XH9HJSB003GJLO5MB00EPQYAC4B00GMC3WN2B00CDS6FIIB00E5PBQ4AB007M2N8O4B00EB7QEA8B00EYPQDLWB00DWJ3ZW6B00E566G9OB008VX2RUEB00EYPJNZAB00AVIQOHEB00CQWA6PEB009NUR3YEB009G3YB3OB00KXD4082B00GMC3WH8B00EMA4KG4B00E5PBMRQB004010XRUB00GMC3WHIB005QEFO7EB005945HSMB00ED0VPFCB00DYX0DRAB00DFGX30UB00EZ8FAEOB000J26M88B00E5668EMB00A8NRH4GB00E5PC00OB00E5PBKPAB008X2B29KB005947VLIB00FFCOXXSB000NIQTJKB004010ZWSB00EZAN46IB00CDS6DEEB00AVIQOJWB003XXABNWB005JRMM9GB007GGOTIAB00DZI7G1UB000E1VHBQB00HVKGB0AB00EMMWQKEB005BYGP4AB00E566C20B00E566AR2B009Z3PQUMB00AEKWSCEB00AM48484B00GG85HC6B0091KXRVYB00AEKWSZ6B00EZ8EEZKB00JLAXI6IB00E5PBLT0B007GRG44GB008X2B97UB00F5ZTZ6AB00FZ3WSYIB00DEU15IYB00E00CGEEB000X7XFSEB00F1IY1SSB0075X71FWB008PQL1YAB004019INUB004VL2SQ8B009TXB9D6B00D9DMFSAB00FI7B8LAB00FE3SMQCB00DULQM2GB004OWURZ8B00DWIS2TIB00CO24Q0MB001CM2D2SB009QBEOQAB00BNPHDQ0B00EFD6EI0B00HJ10LJIB00EMA2UESB008X2BCPOB00GYPK87UB00EPQYAPGB00BNMZSRY'
p74
tp75
bsI11
g1
(g2
(I0
tp76
g4
tp77
Rp78
(I1
(I540
tp79
g11
I00
S'B003WL6YO0B0087LK054B00ENF9NHYB00AKJPAE2B007C7O34SB0034K22OUB001VE1ZJYB005MH5JD4B003CC1980B007RI9ZEUB005LVM4OIB003Y64K6MB000RO619SB002WN2SZ8B00A6YA9X8B00BP5MXJ0B00D35D3AIB00FPTIDHSB00F9F1YPGB0043BJ27YB005LVM8LCB005HYY8D4B0084HE32CB001PRDXQKB003CC19KIB00GDH18O6B0098TME2QB00BCVQKVEB002WN2T0MB0081UM0QIB00AY7YMO4B00FPVFRCKB0060NLMNKB00GV2L8AWB001LZJSC4B00EU3BOR6B00C0WCB4EB000WG47NIB00280W45OB00EU3BUACB00BEX4DXWB00EXLAYKIB009GM0W10B009KAZ790B00A83PRSYB005OI2LGEB0016OUDAQB00F9DM48YB000FJS0OEB0065RQ4LGB00K9195VUB007Y3HU8GB005LVMC5YB006KWOVXYB00FFBQ878B00GXUXL7KB00AY7YMM6B005F179JOB008CTDEU4B002N4PGSCB00EAD7HAEB00A7IA79OB00H6P3KFEB00GOI6TM0B00FMUFK6WB00597687SB00CK1WBP4B005GXMCN4B00BBQG7JUB003RQAWSOB00BIX1DNGB00EKBH92WB00GDH18T6B009P7YI16B003CC19GCB005MG0RVOB005LMBA9MB003CC192GB0047E0CI0B0026FBIO4B0002PY004B0060NLKU0B00C4XETGMB00F89BODUB003XFSTNOB00C5UW9ACB0060NLLH2B00ADAJCQ0B005HYY7NKB00E9P6Z0QB00AY7YMK8B00AKKM4MWB00HE0KW52B005948IISB00G20APTIB00CH8K0AIB00C5138U6B00C4XHVAIB00G9YL9OMB00915QWIYB00793EM46B0026FBJG6B009BZVMZ2B00EKBV1K8B00A89IGZ4B00AZL5XO2B000WG25SCB00GV7A36CB003CC190SB001HRRR88B00AY7YMIKB000WG4A3KB00AY7YMI0B00GDCSXHQB0080310F8B004Z7I4FWB00HB6PFK6B00HGIA4UUB001EINQXKB00FVZG3DMB009KAZ5FQB00DVZLSKMB004I05UVCB00GGOKCBGB001HRTW6SB002VLYIPEB003CC19CGB001HRPW3KB001898DGUB00FUQQYLIB005FYNY2MB001PRI39CB0026FBINUB00BPFXRQIB00H5DOYNOB00GIKV5JGB007Y3I1GGB00FFBQ0X0B003YLV4X4B009XNLEFAB00CBXOVKEB00BTD3CDOB00A0YCBXUB008030356B000WG4AI0B00G0U3SGCB00E90XT4QB0081ULZH8B00FEL30UMB003CC19ASB00DH1YR80B00HQPB2SQB00GYPKNUMB007D1B3M8B00854HQ2IB00FXO5W88B005M4MIWMB00FDJYDEMB0047HLXH6B00GDH18KAB00DIGWS0SB009SRNZ8UB003CHTBS0B00H7MIC6SB00H4E55VEB001T4UM0EB003I84WFKB00EZ8E04UB00AGYOHBIB000WG5SK4B0080312ZQB00EU3C4X4B00BR32OGCB0060NLMSKB003YLQAXSB00FCEIV46B00BIWI8SKB007X6KDJCB005MDY9IOB00AFXIXOMB007QK1IN0B00ANHCY8QB00BIX15DYB00CX7WAY2B003XFWLL0B005ZLNNU8B0049GSQYSB00GCUSKWMB0060NLKCIB00GCT3QUEB003YLV6QEB000RIXY1MB003YLJ2ZQB0091L0EQEB00800456WB008ECBI4SB00HFYXGZKB001PRDXTMB00FPVFR5WB001NKEZUMB000HS6YSWB0098DH4NQB00FEL1Y5UB00G1PRFQUB005ZLNNSKB004ZL0RIAB007RI9YVYB00F0E2RQGB00EKBFPBOB00BFELZ54B002WN2T02B009XGF8E0B00I521DBKB00A6HG7KEB004YZD0LIB009CAQW3SB00HG1DY0EB0021290Z6B0021290ZGB00FMYRD2WB0098TMDF4B00CIDO4FOB002WN2SN0B007PSKM2QB00G1852JOB000QU75WUB00AKYSX5UB005FYM914B00A3DRSBSB003VUZDUSB005JN72UEB00AEE7IY8B00EU3C9UWB003YLOOGIB0021290XIB00FEL39E4B008ZHD73MB003I84UW0B00FEL3OV2B00A2Z6YW6B009KAZ5WEB00EWNIB2KB002WN2SLCB00G5PXSQCB00C4XHSJ2B001EEN1SOB00GJKTZZ6B007Y3HUOKB000BO9UTWB00EU3BEJOB00C513B5SB00BR32PY8B001HRVSFQB005LVFG3YB00BELYZUKB00GV2L8HAB001HRVRX4B00GK5H4GMB004V5BTB4B007ZV9KYOB0021290XSB00FMYR8T0B001PRI37EB00FEVAD48B00FKI1J1QB00CZG1QQOB003YLX568B000FJP4IEB000WG240QB000FJP4IYB00CX7W5PQB00CH8JZOKB00127YKTMB00401B3S8B004018KT8B00H2Y2XIOB00E4Q2SM4B00FEL2YZYB0059761IOB00FXO6J4EB00ED4P1W6B008YEW0PCB007Q4VZZ2B00G4139TSB00A2ZRDD0B000JKBZT6B00EZ8DIEIB000JKBZTGB007GDTWEEB005HYY87KB00GV2L8LGB005F17FTSB00EZ8HHJUB0080310RGB003F67PS6B008D6AJTKB009ZLJTWUB00FF09YKMB00A39FJLIB003CC19LMB00G2Q5O4IB0013W8VMIB002WN2T1GB002WN2T16B00AQ8ZGVYB00FVZG5CGB00848YIVCB002WN2SY4B003VV35QQB0014SARYQB00AN0SNFQB003CC194YB00A1FDWL8B003RQ556IB00E90XJ5KB005977DIGB003UEXT2EB00A6YA8M0B005IM0O24B00GDIFMQKB00FVZG5X0B005G5RSWWB00DG9KXYKB00EU3BZPCB003RQ58JMB005FYNY5YB003RQ3BN2B00AY7YMN0B00G9YL9VKB00G9YL9VUB00AS9TCF2B00AY7YMNUB007TL9TDCB00ET5B614B00ISRFYSUB0062CVJG4B002WN2SYOB005HYY83YB00FLZMDTKB00A3LAGLOB00EU3CK7YB00FEL48VMB00G7A7UHIB00HQPBB00B006BHXEYAB007Q4VZT8B00979M4BIB00I1CXHA4B00FEL3QEWB00AY7YML2B00DP3TXACB00AY7YMLWB00G414DUCB00GV2L8FWB00B5KGQDYB004ADYFPEB0090ON1NAB003XNEW1OB00FM4Y52IB00FEL33RMB0026FBJFMB00FYWFX24B003CC19FSB00F9IY4PKB001PRG024B000LNIYLSB00F5MOROIB0049AC87KB00416U7OIB0058XEMMGB0060NLLW2B003XFSTP2B00CBXOVHCB000G0S628B005LVM8RGB00G413DOEB009ZLWLXEB004DBLPMEB009SL4HYWB005QJ6SUGB002VLYIWMB002VLYIWCB003CC19DKB0021290WYB005M4N4P2B005F17FKWB00410GKSGB009F7PDN8B000AUI9QWB00HS0IYZ8B000WG7FT6B00CBXOVJKB005M4NKS8B00DT36UD6B00FASTEWWB0091KYRY0B00GDH18Q4B00B5SPYRKB00HQPB740B00DD55IHEB0098DHER2B00GDH18TGB0060NLL8QB00HRSIFSCB00ITV3G5SB00FS9AJ7MB00EZ8HQQOB003YLQE8EB0090FDL0WB00BMMNQXIB000JKG4PQB00FPVFRFMB0090XUYU4B00BTPUANCB00915RPNKB001I014I8B004IUPUA8B00EPGFFKAB009SATGSUB00EZ8DEZQB000WG45JOB00A2Z6Z8EB000HS6YUUB00AFES3Z0B00A8MSAF2B00598MAUQB000WG4G0CB00EY63TK4B00FVZG4J0B00ESXG2XYB00506RWH8B009EAH6CCB00GGZFGXYB001D9KW7SB00FKI1GS2B005FCTOXWB000VM077SB009E2F9F6B00G5PXSXUB00FDJYF40B00EY63MIIB00E7TQ96OB00AV6ULIEB00C4XF9ZWB00B232VVKB00FVZG4YAB00HB7NFJSB005LVFLNYB003VUZE3EB002A1HVCCB006BTMI72B0091L0E6EB00B35M676B003RQ51Z8B00AQGAG0MB003F6D6G6B000WG663WB009ZLWOSQB004I0129GB006PGOG0SB0054LVDVKB004BOVCNUB009QBE5CIB00A0C1NGIB005FYMAIGB00997Q61MB007GDVXNMB004V5G05EB0060NLAUKB008MIVJCUB00EU3CF2YB00EAD7IL2B0090Y3TA0B00A83PR1GB00F9F1YF6B001QXSZ70B00AZOBRLWB008O2O4NUB005HYY78AB003UVIREWB00BMMORBIB005CMDAJ4B00DB2AXUQB0076R7ACQB00A6YA7TOB00HQH8N4KB003MU9QGEB007QK4AFSB00FZYB8JSB004KA69LKB00487QC26B008YEW0CKB00C5R7NPQB00BIX0K26B0021290YMB00AY7YMGCB003ZV41REB00EKBIUX4B0021290Y2B00416U7PMB003I84Y08B00802ZYQUB009DY758OB000FJP4JIB007QK57K0B005977EZ8B007Y3I1RAB00BIX16QAB00E90XNVUB00FDJYCL6B008B03W4MB0060NLL2WB00FEL3FKMB00AS9TC7KB0070194FEB00FEL2NFAB001HRVSGUB00FRM8BRAB003WL6YMCB006BHXJ3GB000UGWOZIB003YLX6HQB0042VIYTCB000WG4ACQB00FDWQ7OIB00FVZBHPGB00G5PXSVCB00ET5EHH4B001284RZSB001HRTVR8B006XK9NWCB00FP1Q8CSB00H0HF6ZKB00FPY5TP2B006CVXWH4B00FE0INSMB007ZV9RXIB00BG0GOQWB00GUH44FEB00F5XBR5E'
p80
tp81
bsI12
g1
(g2
(I0
tp82
g4
tp83
Rp84
(I1
(I412
tp85
g11
I00
S'B008RKF84SB007IR3NMUB00EMA0PAOB00CP6193YB00ED0TTG4B0092T8UGQB009QWDGQSB00E9WTRQ8B003Y6X96EB00474NTSKB005GSFJWAB00C5146SOB00FPJSAO4B0012S8H3GB005FEQ25SB00BN6154UB00AOAVAIMB0052Z95Q8B00CP6445EB00JPOSH34B000WG67J0B008RKF6RWB0002A7IFIB00BCA68XUB005DIH6G0B0051RURD2B009CXK1VEB005968BXSB007KHTQPQB008RKEYESB00B5SPKQKB005MDY7CMB00AIBDPE4B0042ZNTQQB00BLWORY6B00BN6138SB002G6J89KB001IB9KWYB00ARX7A26B005VQ2DGCB005WLDQ7QB006MQ18D4B00HCV89C6B00BMP4F0SB00AIBDPF8B007KHVKZ0B008RKFH94B006GDMFTOB00BN613BAB0012XTZG4B00BN61B3KB008RKEYAWB008RKEYA2B007KHTWAKB006GQAHY6B005VQ1UPWB0007SYKVUB00BMP4EZEB000WG21K4B008RKEW3GB0042T9CWMB00C4XDK2QB001BZHY84B00BN613EMB009XWVKYQB0051RUR1YB007KHV2XAB000WG64M0B00AZOC1MGB007L4TFU4B0007TL4MCB0084EPJTQB000X44SDIB001IB6ZT0B005PPJ4GGB005FEQ2NUB00AIBDPBCB008RKEI7QB00HG1E5RUB005DM4BRSB002A15KWAB001IB6ZUYB002Q2J4OIB0053F1F42B008RKF5HSB00710PUAMB002VLYIJUB008ESCUSUB00AZOC0C2B000X44SBKB007CL6Q1WB00HETV2KWB005CHR6NKB00DZW2A1CB0042ZPX10B0090XX492B006GQAKI4B00BHRMYNGB00BMP4KXAB003N2Q3JEB00BN61FT0B00AZOBZN2B00BLWOPDOB00BN6153QB000WG5XH2B002VLYILIB003CFB8GKB001IB9KPGB0047E65JAB00BTPUE0QB00BYJ3832B007KHTW7IB000WG63BMB0019REG2QB0053F1GEQB0013O2AUKB000X46KYSB009JW11DAB00G1PFCGUB008RKF2YYB00BN60WU8B00ER9TR90B000WG4AQWB002VLYINGB008RKFBZYB00HZUGWZKB00594GMTUB005FEQ280B000YYEX8WB00BN61FP4B00HTX3KJYB002UKLZD4B00CP61MJKB0054EU6L0B000WG030OB00FYA6AVEB002VLYIKEB005OI26CIB00HCV877IB006GQAJW6B00BHRN19MB00BN61CJIB0050ZPIO8B002VLYIJAB00BMMNWCIB00ARX7B0CB00BN61HKCB00BN616HQB008RKFLAOB00HTX3LO8B00BN61HJSB0007TL4M2B007R577HUB00IILKPQWB008RKFL7CB00HTX3KFIB002WBU9D8B005DM4FB0B00505SEM6B008RKF42OB00710PXMMB00GNE37F2B000FIDEFKB000WG034AB00GURPMZAB0097ONQY2B0083G9BMQB000WG02TGB001IB7EAOB00BN60YT2B00JKO27PSB000X40TBSB000WH2GSUB00BMP51ISB003AO8SY8B008OHPKN8B008ESCURGB002P4ROHGB000X46KZCB00BN610KOB00ER9RWN8B00BN60YJ2B000WGB0TWB006GQAGV0B005PPH8NCB00FQSCZNQB008RKF5FAB006GQAHDCB0085ZL2VIB008RKF460B000WG66W8B000WH2JC8B0002KYVKIB00BMP4864B007KHTLBAB00FF8S73EB000ZTDWREB00BN60YHEB00417UVQQB00C4XDJLSB000WG7SVQB006GQAIMMB006GQAHN2B0053F1F0QB00JHG6TSAB000WG62XGB007KHV2VCB00HZUGZ16B00BMP4PF8B008RKF442B008RKF44WB008RKF33EB00579MWS2B000WG26JKB000A6VXI2B00BN611Y4B004NQYDJ6B003LN0G5WB00BMP4AASB00BMP4CPQB004BGZSZQB008RKFJSIB008RKFMEYB00EGSABGKB00GEHB25AB00HETIY6WB008RKF6LSB008RKFAS2B0042ZPWW0B000WG4BFCB002A1AOUSB004NQVCGIB004NQWCC6B002TVQOC6B002YV2UKQB000OEQ6FAB00HETV1IUB00EQBUC8YB008RKEYFMB007SLHXK4B00BMMOW90B005WLDQ26B007IR3QEUB0053EOXECB00BMP4WVKB007KHTQCOB00BN61E6YB009UJ5WI2B00AZOBZVOB00ARX7AJ4B00G4GFE2IB00C514DK0B00BL15HVEB008XJGN6AB00BN6139WB00BN613AGB00B5SP3RGB005VQ2IJEB0053ELI5OB000WG64ZMB0042ZPXK6B00HB7P1E0B004NQWCI0B002YV2UMEB003CFB8HOB00BTPSVDIB00EQBU8CEB0012XR8CWB00710PW5AB001IB6ZWCB007IR4018B005DM4D2QB00AIBFSSKB0042ZRKGQB007MAYZD4B006GQAJI0B00FS5RPNCB00B2A2M12B00CP62VJUB00EBCPKC6B006GQAK84B00G3U3OF4B005NUZ598B001GZM2AOB004327NHOB000X44SCYB002VLYIMWB00BN610JKB00ARX7A1MB005VQ1Q9WB008RKEW4KB00BOUPLGIB000WG26FEB00BMP48N2B00AIBDPC6B004NQVCEUB001IS4CRAB005PPL5AEB006GQAGIIB003CNUSCWB008RKFH4OB00BN61B6CB0051RUO9EB00BMP4Z2QB00I02DM1OB009K441PWB001TORMVGB008RKEVVYB00ED4L68OB00CP642QKB00BN611VMB00ARX7AK8B009G45ED4B003CFB8FQB004MN7O5AB0042ZRKKMB006GQAG6UB0042ZLUDAB00AIBDPEYB00HNYE2UKB009FBD1TMB008RKEYJ8B003G09PE8B007KHTQT2B00BMP4MTWB007SLHUCUB0049FP7QYB00FMV5Z52B00BN61E5KB00BIP96D8B007IR3T42B009G45CYAB000WG6394B002VLYIM2B00BN619IMB003JQLASIB00B7KG4RUB00024U1T4B005FEQ29OB000FODUZIB000WG21OKB00BN61FQSB008YEUCDOB00BMMOW7MB007IR3XVGB007KHTQREB00BTPU4Z6B005VQ1LWEB000X42PG0B002VLYIOKB00A0SU1GKB002YS06Y6B00BN616KIB008RKF5OQB000VHBUXIB008RKF2Z8B00BN6154KB009FBCZM6B002Q5LR4AB00AZL734AB00710P4OEB001HENCF8B0052RU6JQB007IR3NESB000YYCY2OB007KHV2OOB0002PXTWEB005MSDSQIB000YYGSVMB008RKEDWQB005MFG1BKB000FIDEEGB007KHTE3AB00BN61FPEB009FBCZE4B002VLYIKYB00IKT22M2B000X44SF6B000HZT2SEB000WG6772B009FBCZEEB00C5145D0B008J570YMB000WG66TQB008QFETK8B0085T63ZOB007KHU5AGB007KHT80YB000OEQ6AAB00BN616E4B00IKT1XAOB009DQ2GYUB007KHTLCYB00IILKRHEB00B7KIXM4B00GEHB46MB0083G9C20B001IB7SBEB004HE223IB00BMP4AB2B00131C9MMB008RKF86QB00BN61FOUB008RKF5GOB0002PWOZCB009FBCZEYB005FEWHYSB00AOAVALYB001IB7S78B000X44SECB006GQAFT8B005MHD8G4'
p86
tp87
bsI13
g1
(g2
(I0
tp88
g4
tp89
Rp90
(I1
(I244
tp91
g11
I00
S'B00G9A4WQIB00FJI397YB009XJL09OB00G6T5TZ0B00DHMJVLWB00FC1WAUKB00J7XTPMUB00FIVQBVIB00G9CF4S6B00FC1W7YYB00E46OLVKB00G9CF8G4B00GJRVTJEB00FBEP6WMB009L53QXIB00GXJFIXGB00JOZX7WUB00DQX6IM2B009XJL50IB002SDCEY2B00F4LU2DUB00FDS344IB00A73JNVWB00FC1W6LSB00G9CF5TYB00919FMNGB00F2G4CGAB00FSC2SXCB00A73JOU2B00G9CFAR6B00HA8HUJOB00GZ65KS0B00FPS4WBAB00E7W6XASB00H5IYG14B000QU3R3GB00F4LW6QQB00DHMJT28B007EBCOA2B00GZ6QWZUB00GTZI7J6B00HHNPM1UB00DHMJXNSB009F1MI6EB00G468I44B00G9CFWF6B00I3UL17KB00GPBECGQB00FC1W6YUB00HGVGENSB00HGVGGMMB00FZ9J0J8B00H3SMW3UB00GXJFFFWB00GXJFFFMB00FK8FAXYB00FHVDVASB00C0KXBQSB009F1MH8SB00CMXYWJIB00AITHA0GB00CMXABQ6B00FK8F52KB001EHC0R4B00FDS386WB009XJL1FMB00AKM8K96B00481Y6PWB00DUGI31YB00F4LU66SB00EFCEI6GB00FSTR1NMB00FC1W5ICB0064W8LM2B00FC1W5IWB00G6T5IQ0B00DQX73XAB00DQX6RVOB00GWUWTT2B00G9CFRGAB003EV74MEB00F4LW32SB00EC4ZRH6B00FA9ESCCB00AGYOEXEB00GWUWU3MB00DQX6V88B009JJTH5MB00GZ65KGCB00EOFBXN0B008MQBPS0B00GF08GL4B00BJ96QQ8B00EP59L5QB00HV5GYP2B00GZ65KE4B00BD9BWFYB00FHVDVBMB00DUGI0XAB00FA9ESO0B00EQAI46CB009XJL27YB00G9CEUYKB004BMZ3V4B00FA9EPDEB00HHNPJH2B000HTDU1AB00GPBE3ZQB00FBEP6YUB00GXO0NK4B00H3W1UUCB007L4TCYSB009L53TDUB00AGYOFGUB00G9CF6ZCB009XJL2T2B0064DGB82B00H3TNMYWB00FPS4RD8B00BL6TVMAB00G9CF9QIB009F1MDUUB00FHVH014B006P5THJ4B00AGYOG8MB00G468H5YB00DQX7A74B007L4TBT4B00FBEP77QB002O6OMB6B00G9CFZHQB00H7J1IYYB00BGWTRBEB009XJKXWEB00DQX5JO0B00DQX7LEGB00DHMJVPIB00FC1W63QB00AGYOFP6B00FBEP92EB00DHMJWWUB00DUGHXL0B00FRU5QGGB00CMXABL6B00GHV3LYIB00FDS2K8EB00FDS37GSB00GZ65KKIB00DQX6Y3KB003KKSEOGB00A4HJWMGB00G8W5JOGB00BL6U39KB00FSTR9FWB000QU4YX8B00G9CFU30B00EC4ZPYGB00DUGI1SYB00FBGSPUUB00G6T5LB2B00CM1GGGMB005HIY9SYB00G4LOAG4B009L53RAUB00FDS2ZCUB00FBGSD5MB00G6T5R02B00GBUMB50B00C0KXBTUB00FDS300QB00F2G5YUIB00G468K8SB009JJTH1QB009JJTH84B00FBEP79EB00FDS3A9CB000BJR2WEB00BNJZEJOB00FDS32L8B00GTZIH3CB006P5TTE2B00FPS4UHGB002MHIAREB00HA8HVRKB00G3IND20B00AGYOF74B00FC1WBAYB00FC1W79EB00C0KXBRMB00E62FOX6B00GXNQDW2B00915REHCB00GHV3LU2B00EQBUVJEB00B1Y7476B00BGWTR7SB00H4IA0GAB009XJKYZUB00AGYOGGEB00F4LVGYYB00FDS30VAB00HHNPKGMB00H4JX412B00FA9ERBEB001FENH1OB009L53SKOB00GJRVNNQB00A73JHPYB00EAHFBIUB00FHVDV94B00GP5OJEWB002WDHCVSB00H3W1V5GB00GTZJ7VSB00H58QAN6B002WDDQZYB002WDFGW0B00DHMJRWAB00DQX5N4GB009O0VWKYB009XJL4KYB0012FX3FGB00FPS59JYB00DQX775YB0090QU5U0B00GTX21WCB00G9CFMM4B00FC1W8PMB00GB08TUGB00AGY1M34B00FHVH00AB00FDS33DAB00GB0N08CB00H5ADX7UB00GZ6QWIMB00FBEP76CB00FDS31NCB009XJKZKYB00FL34FYSB00G9CF0FIB00DQX7GSMB00H3W1UPCB00FPS5AZ2B00H4JXCVE'
p92
tp93
bsI14
g1
(g2
(I0
tp94
g4
tp95
Rp96
(I1
(I308
tp97
g11
I00
S'B00IA6VTO2B00G1AKG5CB00G9BMM82B00EZ8E5DGB008NDZJ0WB005I6R6LWB00FNHTQOQB00IA6VPPKB00FF5AHKIB00FRKDFFKB003MPAIB6B00FMX4WH2B00B470MZ6B00BDBHIXWB00FE5PM22B00FMX4W7CB00FRKDJJCB00HAYUSEMB0012TH87QB007433XR8B00412EC5MB00F11IX3EB00AWLXEFUB00ANFNA22B00EN6O7OCB00DQX6H64B00D67ZASQB00FNXAY8WB00FNXAY8MB00415LM9IB00BDBHEEKB00B9MS4U6B00FRKDQF4B00A944X32B00DH041UAB005O318W2B005DTL52UB007CZYITKB00H3USQK6B00G9BMLL0B005HURDSAB00EJPMB6IB00C75GMHQB000W3XAGGB001A78I3IB004NSMS3MB00DH03TVMB00FRKGUVQB00CWK5LX2B00IA6VLPEB00JB1S8KIB009Z09KXOB00FF5AKIMB0051C50M0B00CQTRIJEB004WM8U8GB00J2QWF88B007U3EKT2B0009NYC5CB00FQQ3O4MB00CWK8C88B00G2X9CAIB00AZR0KFSB00FMX4WB8B003T9TMD0B00IA6UFOWB00AK477W0B00K2CWQZIB008CX6NDAB0016SACVCB00AK477WKB00IA6VCXAB00IA6VRN0B00BDBHJBIB00IA6UHEUB00CQTRII0B00IA6VJRYB00FMX4W90B00AZR0KOOB00G9BMEG2B00CI23Y60B00FO3M1CIB00BDBHHPQB00FNHTEZMB00IA6VER4B00ASQHH84B00FRKH5T2B00F62BSGCB00DQX6ZC0B000UXH866B00AK4783IB00I4X5OUGB00DR2KTYUB004HV55MQB0091KZX0CB0081SIQ40B00AZR0KLCB00AZR0KLWB00IA6UL2IB0092T75OYB00FRKDCO4B005DTES7YB00A7CTHK0B00BFCR01OB00HQ763DIB005FEQ2YOB00F8HPIS4B00GNGNW3WB00CWK8AOEB005DTL2YQB006GJ9GD6B00B02AH64B00FE5PLX2B00FNHSW7SB00HJE9MMMB00G95YGFUB00DQX7BV4B00AZR0KHQB00DQX78VMB005O94IHIB007WDOLUSB00H3W1UWKB00DAXOWE4B00EN6OMIIB00G9BMTK8B00AFET6M4B00AZR0KJ4B00AZR0KJYB00ANFNAMMB00IA6VI48B00ASQHHCKB00A7CTBSSB00EAEW1NQB00CWK8AKIB00FNHTOBQB00IA6VQ9UB00FMX4WS6B00A3IX0G0B00HJE9MAOB00FMX4X44B00FNHTNOEB009DQQBY6B00FNHSL2OB00DQX76HSB00G2X9C76B00IA6UUT2B003YKA3EQB00FNHT8TEB00GR9GSHCB00BDBHFTYB0012TH8G2B009N1X6C6B002Y43IBSB002HVGAW2B00G1XQ4J6B00IA6US7GB00G2X9C9YB00H3W1UQQB00IA6UPLAB002KT1YE0B00FE5PM1IB00FE5PM1SB0012TH8C6B00FRKD85MB00CWK8D50B004WM8QM6B007433XQ4B00FNHTP38B00FNHTMWCB00FRKFZHQB0098OA34CB00BDBHEXGB00HBTX4O2B00GKOHOB8B00CI0ZNMUB00GNCWGWYB005MUPMXSB00IA6VDFCB00CWK8EXQB00FRKH1R8B00FRKCR68B00F62BRWCB00DQX73OYB00HJE9KFGB003O1Z0LQB00GOPU5CIB00AK4788IB005O31DWMB00GIHQDWIB00FF5AJG0B0099RPTZGB007434BJMB005DTEUPOB009G42ONWB00EJPM8RAB00AU9MEWIB00F9YTKQWB00HJE9JCAB009ES5R1GB00FF5AHBMB008GR3REKB00GNCWAMUB002ZY9G36B0058NYV90B00DR2A49AB00E96BHD0B007434BLAB00H0BUHICB00I4SM7EMB006332830B003IMAO62B00IA6V2J4B00CI0PJ4MB009EYD1YUB00E96BG4KB0018R7JKSB00EN6OH9WB005DTERCUB00152IGGMB00ASQHH7UB00ASQHH7AB00HJE9KX8B00AZR0KGWB00AZR0KGCB00FNXAY82B00558UNXQB009612MEGB00FMX4WCWB00G4S7XNYB002OAV28SB00GKOIQL0B00BDBHGAWB009AFY6COB00EZ8E4KKB00DQX6W78B0091KZVI6B003DZ213IB00H1WLRGQB00AK477X4B007433WOCB005E1LG9YB00G2X9CBWB00AK47806B00DH042POB00EXZUHAGB00DBAA1AUB006ZQWAUQB006GDS4CGB003KN3PLKB00G2LXOYUB00CI2QR00B00F1EZQSGB00FNHTCRCB00AK4782YB0013THPFKB00G9BMJ76B00FRKDECOB00EOI5SQAB00FNHTDTEB0062MX3MWB00IA6UJ34B009DQQC1IB00HPQSVDAB005O31H78B005HURCDQB00FO3M11OB005XGH7DEB00ASQHHRKB00DQX6S1SB00IA6UOPMB00GNCWNU4B009612MMIB00E96BGQIB00BEMK45YB002Y30PJ2B00AWUQRZUB0090F9JZIB007434C9QB00FRKHYL6B009612JQWB00AZR0KIKB00FNHJJLGB00EZ8ECR0B005O31EOEB00CWK8BKMB00AWUQR7SB006G2YX68B00HJE9HIQB00163HBWUB00DR2KR38B00DV1FXE8B00EIR1HNKB008GR3RRCB00IA6V4JWB00FXHMLH0B00FRKGUGQB00ABG5EA4B00FRKDMPIB00IA6UA4MB00FRKGOQMB002P2ZVG4B00DQX65PWB00CL066E6B00CE4LH9SB00EZ8E5Y0B00F62BSWQB00BDBHGJSB00GNGND86'
p98
tp99
bsI15
g1
(g2
(I0
tp100
g4
tp101
Rp102
(I1
(I450
tp103
g11
I00
S'B007KHXTXQB00F2JKA2MB0059686CYB00EWHYGMKB00HPWPPTMB006WPB5QAB00F62DFYKB009G1AJ82B007KI3390B00ADO4SWYB0098ON4GGB00ECEQZ0OB00GM43ETCB0059D5SDCB00GM43DH0B00BDE2AZUB000WG4EXGB008RKEMP4B00279C4OCB00FMLYOEAB00FOBBO8CB00FNXVG4SB00A2YHQMEB0059BWBSOB0099SC2KUB008RKEKISB000FAR2HOB0047CXXROB00D05UX0YB003AEY2J8B0053F1JV6B004A1N7DWB005ADT2WYB003NZWVWOB000WG5ZU2B00F2YIT3OB00E3GPHNCB000WG23WUB00CFHF3NKB00EJQIHN8B00HHCLQF2B00GLH0QIMB004DZE3MEB00EOHYX58B00BEFSHVOB00AIC137OB00DSUVL9SB008RKEE02B00CKFEUMCB004IZ1BKGB00BTPWRJCB009H4AKTGB00279C41KB000WG7S2AB00GYZ0FMIB006U41HLQB00802GJ3CB00GM43DF2B00HHCMM14B00H5B6WUOB005INYKMIB006WPB5D8B00AY0E0X4B009F0IOU4B00C5169UWB009FBYR9UB00I1TY8UUB0059E0BSSB00E3CUYWAB00GMUY52GB008RKEJBQB008RKEJBGB002TC8B7GB00FFX4NXCB003TYPJSMB000A6W2E6B00IHW56DYB00BUAGIVOB00442M15WB00131F1SQB00C7O0HAUB004ZJYTEAB008A77CFQB0059D5SYQB00BDE1OIEB004I5NWNAB009Y6H040B000A700P8B00DRMC3PIB000A700PIB00BEFSKNYB00FP4E8JKB00AY0E034B004VINCB6B007KHXHV0B00GCBAF6KB006WPAV60B005GC0X8GB0053F1I7QB00AJ1A3YIB00933AGJKB00DY64T40B0085PEF08B005IDEWVCB00HHCMUPMB008PEYTA0B00F8F1JN4B00E3GPICWB00BDE2ETMB0053F1K10B00GM43EEWB008RKEP9MB00AJ19ZO2B00AJ1A1P4B007KHX7XSB00AOAVHDUB002CAABN2B00FF9P4ZWB00BEFSJHQB0053F1ICQB00H5B6QSMB005HAKM74B00EM25994B008H2X4GAB00H5B6SZ8B00AJ1A0NWB004BOITOKB0006N53T4B008Y1D4MSB00F8ECI12B008OIW1KWB00BEFSI72B00F8EPD50B00AY0E1JWB00AJ1A3Q6B0018R7JQ2B002TLUYFOB00BDE27USB00GNDV714B003SZIG8MB00HJE9K6UB00E3DX6YWB009XHPWAYB00AHPXKXCB00BEFSJ3AB000WG907QB003NZQ3E6B005OL9TK2B008RKEUQ0B00DQG72BUB005MQPZKCB000WG8ZQIB0013PQ1VIB006MZAPIOB0055BUXXSB007W14Q2IB00D93V1TEB00DRMBMAUB000H70Q82B00GVOTFPAB0059D5HAGB000A700N0B00C5162N6B002WDJEHSB00HHCMNEKB0016LHNOSB00GM43D3YB002UKTB58B00AY0DU4EB00GLH0MKEB007KHY34AB006PK36F0B0053F1KDSB00DRMB52AB0056L9UMWB007DX7WU8B00EOHYZHOB00A2AGXVSB005942Q40B007KHXTSGB004VINQ4EB00HHCMA84B00HHCMQMOB00EQMCJJ8B008RKEDZSB00BV9K1I0B001DANNF0B0091JSI3WB00CQ7319MB008RKETTSB003DT0IT8B001KBAAPSB00FGCYMQ0B00ESBF4HGB005GDEW82B006Y77RL8B008H2X320B00G709NYGB00FXO32OOB0053F1I4YB008SGUZYYB00GVDXHTGB003UYOJQ4B00GRD9CR6B00F8EWHZOB00AY0DS14B00HHCMPJIB006ZB3ATQB004RIJANEB00HFBX3Z6B001FYXUXYB00AFEOJTYB00CV2AACSB008RKET3OB006ZBL5BGB00H589GYGB00H5B6TV6B0096NTKTEB00DZW1ATKB000FAWU44B008OIW1GQB008RKENQ2B005461K7CB00J13140WB00GFZO5TQB00F2JK9XMB0047CXXQUB00FHUJWO8B00D93PODIB008NY9HWCB0099SC372B008RKELFUB008RKET52B00883AIGWB0044ZZ282B00A3XDGB4B000WG4FBCB000WG7NV6B00BDE2GNGB00FF9NBC0B006K7OQESB00DRMBQB0B00AA45BGOB006WPB4KMB00BEFSITUB00D05UWKKB000X7VC66B00ECEQYLOB00E4YYSH4B0091JSIKKB000WH4S6IB00CZDSEXUB006WP9G2UB007UYBKF8B006T9EE4OB00JG1OM3AB005HAKF9EB00AY0DWCYB0012TMDQCB00A6E6R52B00DRMBSS6B004CASB14B0093LXWYSB00GNDV09IB000QE9I30B00BEFSIHCB00EMZA7Q6B00A0C1KNEB006WWAJ5QB001TA2XEQB003VMBVGGB000WG61VYB007L3P3A6B005LR408UB00ADU0UFMB009FBYSA8B00BDE299CB005O54LCEB00ABQTY32B004WM361CB004X2QNC0B00HHCMV92B00AJ19ZVUB00E3GPHCSB00DHUVODMB00GM43E06B0049FE0B2B005MQO5GWB008N7G6LYB008NY9HJAB005DM4II0B00AY0DVGGB00FF9P45CB00EKHMM50B00A9WUUYKB006WPB50QB00AEBVJAUB0070ZD7DKB0059DCE20B00BDE1XZIB008RKELHSB008D3VOJCB005PPI9VWB008RKEJC0B006XK6PKKB00HUF1BMYB00IVM7S40B00IFOYI5QB0099SC2DCB0009W4T6KB000A6W2EGB004034AGIB009Z089NGB00DHUVQ76B00AY0DZ9OB0059DEJXCB00A2AF1RUB005IDEUPUB005GTCS3WB008RKEP88B0047CW4WEB005967M0QB009RPNCMMB007KI2YJKB00AY0DT1IB004SL1O5MB004X2QMDAB00DW91MCQB008RKEJGGB0033QL0F2B00C5161OGB00F629TRCB006TNEZ76B006WPAUL6B00G7NPYRSB008D3VFXMB0099SC2XMB002NYEY9EB001MQDGMKB006WPAUSOB007MW758OB005GWWFUAB005CK2E3EB002U0UZR6B006K4MNJQB000X77PA8B00GM43DYIB00BZSM1LCB00DRMAZRGB00BKB5ERMB00993HA0CB00F8EPD64B00933AC1WB004VIZCH8B000WG7SD4B00INCMNTIB004036HKKB00GM43D4IB00AEXXHL2B009VEPIGCB00940RJ1UB00BDE25KKB00AOAW27AB00BUAGGVGB00BMFY8RSB006WPB56AB00E2KU4FKB00AY0E0F2B00IMJ3COWB001O92MIEB006DX4MDOB005GTN1K6B006WPB5KQB006K59G2CB0006N53SUB0006N53S0B008DD432WB00GN41WH2B0042M8MKCB00DQG6SEWB0091XSPHCB005GTCR3SB004QOQZZ0B006N0LFB4B008B1ONPIB00G7SBDP0B004JWOMQSB007KHXULWB00FMM4B1UB008NY9I3AB000WG94TUB003WUNRIMB00FNB6ZQ4B00INCLYYSB00CZ4RNMWB00F8EPCZQB00BAXQU28B0096NTSZKB00D50CP9QB008NY9OWUB000I7DYVCB006WPATN0B0058XP784B00BDE2FTGB00A0JAB5KB00C5169DOB00J4DLDFKB00E3DX6XSB005L8L8IOB008QZ7V9EB0053F1IWGB00HUF1LA6B006WZOMLAB00131C9CWB000WG620OB006WPAUFMB00AJ1A5RIB007KI2UYOB00KEZ34AOB0049F84JQB00EOHYXS0B008B1OKY2B00HUGW6H2B00FMCMOQEB00B1JUFQSB006IY1R04B00JW2YCS8B00B1JUGVCB00ADU0G4WB005L8KP10B00HSK78SCB003TTZVUSB0053F1KGAB008FTMLVOB009MB0GMKB008RKENRGB00C5R88FKB0012TKCEWB006WZOTYAB00AY0DY8GB009WV48MOB0013XJWQ6B0053F1K7YB000WG61QOB0045ZZFAQB003V6ZUFAB00GDM2IRMB00DSUVG8YB008RKEMRWB0018RB832'
p104
tp105
bsI16
g1
(g2
(I0
tp106
g4
tp107
Rp108
(I1
(I457
tp109
g11
I00
S'B0092OQN4CB005HUQVXSB00GBNB3TCB008U4L50WB006JSVV1OB005RMSSX2B00462B41MB00FMVAVCYB0091KXJBWB00598T1B2B005HURI6WB00FS1W5XGB00EZ8DV9KB005HUQTJYB00EZ8DU2IB00H9HL13CB00AB14Y6EB009O0XHRKB004IUNI52B0092OQMFWB00A734K2EB00FQS7I4MB00GJ6ZKUYB006CBA6ICB002KITI80B0074LPMKGB00EZ8DXXOB008CN3FAYB0062MY50GB00FRT4TFQB00AS39ZJ6B0091KXK3OB0092OQHPMB00AM52W40B00EZ8A8UAB00HBXLLT8B0091KXLCYB000QCBJJSB005MFFY04B00A2ZY5EAB00G7Z6WLSB00EZ8EEL4B00BMANXBUB005968FV6B009SSD5SYB00G5IN99AB008GR3QDWB00GCGINPUB00573TIYYB005T97Y8SB005HURGZKB0045XUXF0B0067OXRRGB00AE7Z4QEB005HURNEEB00AL4S83QB00A734I12B009II1VRQB005HUQJXKB00EZHJOJCB0092OQW52B00GGV8U36B009IHBB0YB00AWRR5K4B006IBQI2EB008CN3ZNGB0092OQOSCB0092OQOEGB00AWRR4UKB0092OQVD0B00G9BM5OIB00HX6ZDA6B008L1WLDEB00GCGIMUQB00H6P16TGB00CJLHLSCB00AWRQWHGB00GN4YKHQB006O0LWGQB00AELARDAB009G3Q9QQB00F9RV8ZUB00GXR0PMWB002B5DRE8B00CH9AVGAB00EU74FUKB008CNC41UB00B7NJG9KB009G3Q9QGB0062MY3RQB00C4XGNJSB00AF12XLIB00G4156IAB0090Y1YWUB008GR3XUIB00EZ89KTAB0063R5L4EB006IBQD7OB006IBQLBCB00GGV8TQ4B00C4XGLY0B009TYOLX0B00H3W1UVQB00FI6NH92B00AWRQV0OB005I0EHFGB00EN6ND7YB00ENR3VPWB005TGWEFOB009JHKL4KB0073VNCO0B00EYN0WHUB005I0EFGMB00EZ8E3K6B00GG7RRF2B00GN4YZ08B005RQY96SB005HURZVAB00F9QZSWKB00FXCW5XAB00A2ZYBH6B0092OQLHGB00GTLS1GEB00EZ8E8O2B009TYOL8AB00FTM5TXMB005I0EGAWB00HBXLOHWB008L1WL3YB00GBBBQNWB006IBQJA0B00A2ZY7OIB006IBQFR2B006CB9ZUWB00EZ8A468B005HUQRV4B00AE82WT0B005HUQNI6B00HBXLH10B0062MY5BAB00GCGIMM4B009PCV9Q8B009EAHEQ0B00FXCWDEQB00FIRPZI2B005HUS1EAB00GJYQHV2B009II1MFCB00H4SHAZEB0092OQIJCB009DQJVY8B00FTNQS36B005HUQRX2B009SSD4EOB009G3ZEBCB00GG7XTD6B009II1YICB00AL4IPJSB00EZ8DWDUB0092OQKF4B009DLI40KB00EZ8E57WB008CN42FGB00HQRO72MB005I0EG0MB009JJTH7AB009JJTH7UB0093ANKZAB000QCDTHSB0073VL4D6B00F2E6D7IB006CBAALKB0092OQO2IB00H4SHSROB004WGNEBKB009SSD1FQB00FD8R49EB008CN3RBGB009SSD2TQB00HE8HPK4B006CBA0YMB002KIPDSYB008U4K7TCB0091KXKHKB004IOJM4YB00F9RVC7EB0092OQTQOB00AE82SO4B00L4QO3ZMB005HURVI2B00F2RQ6CCB00GLS3X22B004012S50B005QABPD0B009TYOLMGB00FQQ2W72B009V12V42B008CNCBU4B00EJ25UQYB005S5FTPIB00EO2K27QB00HX6ZDTCB0092T1H8EB005HUQRCIB00JUHJO24B009DLHXF2B009G3X19OB00B2BQYGKB005RQY9CWB0092OQVTOB00H3W1USYB00A74C8DQB00FGJE4L6B00EWOYF7YB00C517884B008FUZV9WB00I5PQRLSB00EWOYDK8B002KITIAIB00GCGINYGB00ECL6WB4B005KVRE9OB002KIREL8B009TYOMBQB00AB7AU2AB009II1PSGB0092OQIO2B0092OQUD6B007G0OEG8B00AWRQXWKB006CBA9B6B00B7NJEVAB00HMB35QGB005LUBKTYB00FTSA7P6B002KITIGMB00A0V5URMB00450PWJAB0092OQITMB002L0BMQSB005HUQM96B00E9GSSK0B00C9KOI34B005HUQQUGB006CBAEC0B008CN4184B002KIJXW6B009DLI9BOB002KIREHMB00FMM015AB008CN4AHGB00AWRQZRIB00GCGIN00B00GMV4AIEB00EZ8E0YAB00A6Y1TWSB00AWRR1M6B00401AN1GB00H4YHOMCB009A6GM5MB00CF6T3SWB00GNQ66R6B00GCGINUUB00EZ88DFWB00FGR02KAB00GDSHID0B00G414ESSB006CBA80IB00FD8R4GCB00GSF9160B007CF338MB005I0EFUSB00AWRR3CEB00GT1Q3KAB00CJLAAA8B008CN3GEOB00B7NJL0OB00AF132OAB00F2J0F72B0092OQSG0B0090BLNM4B006IBQDS8B0080039SMB0090Y1TUCB00FD8R4EYB000UH5U62B00919GRDAB009SSD3OKB009B3MOIIB00FIRPZ4GB00GN4Y5QMB009DLHQF4B0092OQO96B00756PF8OB005FEQ12CB009DLHW8UB00EIR1N98B00FQQ307SB0091KXJS0B004K27WB4B00GCGINQYB00B61YXJQB0067OWGV4B004014ZGKB005I0EFNUB008CN3T5KB006CBA2EKB009DLI89CB009G3Z9D0B00ACA1WKKB00B7NJKLOB0067OWR4KB008YUVKFCB00B7NJIQQB0092OQRK2B0091KXKXEB003HVJH0SB000UH4OYQB005S5H5IWB005HUS1ZOB009TYOMN4B006IBQKVSB008L1WLIOB00EZ88FM8B005WPRK3SB005HUQWK0B005I0EHAGB00I1K4LI8B00ECL6XBSB009LQX6JGB00AG1ILMCB00ABB9ZKEB00AB09AF0B002TRZXU4B00CJL4XS8B0092OQIXIB00H9HKW78B00919I170B002KIPE2OB004016KRCB002KIPDZCB005F1868CB00G62UD0SB009DLHV68B007HPUCIGB00FD8R53EB00GFSP5QAB0092OQQZSB00GNU1HYEB00AJYJLG6B004GSN446B00A2ZY9X2B008CN3E14B006CBA542B0092OQMSYB005I0EGR0B00IL34XISB004Z90COQB008KOHYXOB0092OQLTYB000QDK5ROB00CJL4WO8B00GG7S13OB00HK1RAWSB00919I7DIB00GNU1PWIB003EPT1WGB00A2ZY93CB00GCGIMNSB00AWRQSSOB009SSDBC4B00A2UDTU6B002KINLMEB004WQTLGMB009JJTGYYB005HURNWQB00EYN0VI0B006KWOZWQB00I1K877OB00B2BQXMAB00ALMUU5MB00AZBMUVQB00GGV8UYAB000SOI33EB00EZ8HB3WB00GT1RM32B00AS3A05OB005I0EHM4B00EDXVEQ4B00GBKEYFUB00FQQDM7GB005HUS0WIB005HUQQG0B009SSD80OB00HC7ULS0B008CNC712B00H3MCNBWB00EZ88GOKB005RQY7MEB00F2NJPAGB00GJYQFO6B007HPUAU6B00HJ0Y2J4B00EZ89N2EB009G41AMIB00EZ8BBBUB00GT1QLSOB0053S7R5AB0092OQL80B00A9WNCKOB005RQY7K6B002KIPDRAB00EOWUHWGB005I0EGFWB009TYOM20B00IDW1V7IB005TGWX9GB005RQY91IB00598T2GQB0092OQIBKB00AZ8XJ14B00450PXDUB0090Y1XYEB00A6Z2C5AB00GXKOJ5SB006IBQCM0B00919GQQ8B009II1SG0B006IBQGA8B005F185MYB003DQOI4WB0092OQR9IB00FIRQ4M8B005HUROUCB00B7NJLLSB00AE863JKB00FQ4UROEB005HURF9MB00GJ6ZNX8B00B2BQYL0B005I0EG5MB00GTLS3O4B0092OQT1OB0098G9K6WB005CKZ8GEB00EZ8A38MB009TYOLFIB008U4K29MB0040137WSB009LR8MBWB00A6Z2C1OB00A6Z2C1EB0091KXLMYB00EZ8EIBKB005F185VAB00HK1RAW8B00CJLA8F0'
p110
tp111
bsI17
g1
(g2
(I0
tp112
g4
tp113
Rp114
(I1
(I338
tp115
g11
I00
S'B002VBWCV6B00IGI4OUAB0018B5T4MB00A2Z7BNMB00GT7DWSUB00EZ8ACXSB007Z5WF7EB00E0WS5KGB00AVA1QESB004BPZTAGB00A431764B009AG91KUB004JLWXHOB00EFPO3BIB0087QXUECB001MKDM8YB00EZ8EU9UB009G45YJSB005EHVKPIB005KS7AM8B007VQSGKWB008X2BJHAB00B5ZVZ8KB00BVGKV24B00A4319K8B005EJ5A1GB00FYEZNEKB00AQ8V7OEB001AXBQQSB00EJ6YYMQB00ESBGQEQB005DKO4D6B006ISSL68B004FPPYD4B0087QXUGAB00GXSMWAEB009F7QXCSB00EU4UMJGB005D0A3VSB00H7MINBMB0090F9VG0B002ZOFUXGB004BQ2M78B005PPLG3KB0089V88NIB001QJNLGYB00CPT0S5GB005D0A0I4B001948QMAB00AVA1OI6B00EZ8J6QCB002NNTGOSB005M4TYXSB00F6862IAB00E0WS7YAB000N0B9UCB00BQ3I3NGB00BSOMPZAB00BGAL8TAB005GV70UGB00EJ6YZX4B008M2TCR0B00FYEZMOQB00E0WSLB4B00EBY6WO4B006ISSK96B00EKVLG3KB007RI9WDYB008U4M4ZCB00CAU7YB6B00E4YUUFIB007MJQR2CB009IKJRRKB0040QWUBWB00EZ8F49AB008KULBLOB0052Z9FFYB007RI9WKWB00EBY6SXEB00FKH06WKB009GO6PICB005EQXELWB00E0WSA74B000J50DIUB004FPNXW8B008I6HF4MB004FPRIUQB008X2BL1YB00E1LW4P8B004N5TN9MB00CPT0UNGB00GMRAZFUB00EZ8EGUIB002W42W94B007D1BABMB005DD2K52B0089V87RUB0099UKW96B00AVIQOCOB00E0WSBJ6B00E4YUNW8B008X2BN5IB009DLD7LGB00FYEZJP8B004BPZTTMB009M0C5YIB0057063UOB00579MHPAB009IKKD7IB00EWBFZ76B009V18OA2B00EZ8EM8YB0092Q120KB00BGTFGT4B009R5YEN8B009IKK2VUB00BLWOROGB00ANEBYK8B00E1LSQ4QB009IKKEKOB00HZ4A87YB002AIYOTIB00FMZJJ0AB00C7CYSPMB004SL2QZOB008M06KZ4B00IDLILWCB00AVA1S5KB009IKJP2WB00BJF68REB00GQDTPUGB00A8SSXJ4B005JN3RASB005LCC0EGB00BJF6ACCB00BIXAYGIB00AJYH4ZQB00BJF678OB008KH4BJQB00BJF66N0B005WKPU0SB008U4M7OAB00AVA1PYEB002UC68LQB00EZ8ELFIB00GYPKC9YB001QGZTXUB00JUF6GRWB00EZ8ERESB00G3MR4JOB004TEUFLCB00E786JCEB00EZ8AG7AB0099UKWF0B005D0A3B8B00933LEWIB002BH36HEB009AG9HU4B00BSW1XO6B00EU76DCIB0014SCDZ2B0058YBVTCB004MDV2HQB009IKJWN4B00D5YX6RCB006KWPRWSB009SEY8VGB008X2BDK8B005C1H0K0B00F4RS1VEB00FG1MN0SB00AJYGY4IB00895MC9KB00C4XFHIQB00595BHZ8B000J4WUBEB00GKPOJFQB005LUBM92B00BUIVPNWB00BCE2BJQB00EVOIXQ4B00AAP51BSB00BFSE4EYB00ANED014B008U4LY4EB00C7YNTMIB002TXI2SSB00A2Z7BA0B00E3ILS7OB00ARNU3FWB00ENRDVWKB00BQ3I9HQB00FO0IKBWB008X2BIBMB00GP4YNQWB000J4WUCIB009IKKFCQB00AVA1SMSB00FUQQVF2B00FUQQTNQB007P5U2M4B00GS5WBVMB000JKE4BWB009IKK6J8B001658WP8B009FC4YWEB009AGFRGWB008X2BK1AB00FYEZLMEB008PQMF5YB0099UKWHIB004J43474B004BGYVJAB009AG08RKB00GV4V846B00BMPAJF8B009H7TR2OB00579MJNUB00579MKVQB009V18P4WB009S3THSGB004FPRIWOB00EOMBPRMB005DKO3CIB007MJQQY6B00J35UUJEB009SXF8J8B00BSOM7EEB00BJF8JSAB00BSOMQXGB008S94KH4B00F45AFC4B005PXRRZSB004BPZ0NCB00BQ3IAACB005GD3LIYB00FYEZ2G4B00EWBGP2AB0099JH0NSB009IKJOFUB004REYJRAB009IKKGJSB00H2EL420B00BJF65P4B00EZ8F4W2B00EZ8JWE8B00F6852WWB005M4TZ4GB00BB7EP6QB0099UKWICB004FPRITCB009M0C3WMB00FS9ACKGB00GF65P1CB00FXSJXV6B00G9VK9SCB00BSW1XP0B00GRFU192B00A3LABBOB004FPRIVAB00GP4YQPUB004BQ4DTSB00FCU6O2GB009IKKJCCB00A431E8UB00BSOMTZQB00F916M3OB00BVD3CFKB00H7MIP06B009F809HWB00GP4YLEGB00C65XR8EB00BLVP8F4B00EZ8AFS0B00CPM2YICB004FTVYQQB00EZ8FBO8B00FCU6O0SB009V18OF2B004CHGS80B00DJVLPGUB002HHVGF2B00BCE2BN2B00C528F30B000NJQK02B00C7CYAEGB0018B8UN4B0002MFDYOB00HRI44NWB005DD2K9IB00E4YUPQ2B005DD2KH0B0096DRX84B00BJFATMYB00EWBFTG8B005C2KWRMB00GS6L8PQB0084IVVLMB0058ZRT24B0017WS28CB005974XE8B005WKT2Y8B00AS0K49YB002PU9LO4B00IT5JG62B00B5ZVY6SB0062CVOX2B004BGUBI0B003RQ7DRMB009XVA2LOB008U4M2LSB004ECH70GB00FSVK95WB00ESVPKB6B001SP95DEB00EKVLDISB00EU76FJYB0026Z32SOB008X2BEP2B009IKJU90B00EZ8F7GKB005KPN214B00E4YUS6EB00EO8CODUB00EBY6YCOB006O0JZI8B005DD2KAWB0054EUFAMB004W07EOOB00EKVLHD4B00D9E9I2UB008S97XZ0B002Y08VGEB009UJ2SHKB002YM3ZAEB00APTOVNSB00FYEZP0WB00BJF8FGQ'
p116
tp117
bsI18
g1
(g2
(I0
tp118
g4
tp119
Rp120
(I1
(I664
tp121
g11
I00
S'B006CB31NOB005SQ5HX6B009F7PEK0B009AED6AIB00FPUXCUAB009JME3YEB00EFD7E3OB00GA592DUB009SNXFJSB00EZ8AMJ2B009SNXFJ8B00EFD47V6B009O0WEECB00H2VSUCUB00B61ZDD6B00CDMH010B00EFD7KTCB00EFD7MFOB0067N8ZQUB001PR49R2B005RQWZRIB005MSDXRCB005FSMGRMB00BBT9MBMB00919G7P8B006CBAG78B00416WJ2QB00919H3SSB00GGRFB1OB00FOB5KXWB00C4XHJFAB00CLSV5F8B00A0C3ME4B00A4086ZWB00EH0YAY6B00AZ9AFJWB002KITIYEB00FBPRBDIB00E4Q4HJQB009YADET6B00F8JSGVSB004893SNUB00G4EN9WMB009V18II0B0054U9NP4B009V18NLWB006CBALZ0B00G416B98B005UPHKA8B005QAAB9YB00H2VSM4QB0098DFGUOB00E1XFV10B00GGRISJQB008M2T7P2B00G4EO9V2B004RHRPC8B00AMEFGWQB00AM3SJBWB00FRL2W3KB0092TA4LKB00A43JOKKB00I5RAWGCB00F65HQ2OB009V187HMB0091LAWIYB00H2VSXKYB00EWLUSPUB007MTNIO2B009WXRIBAB009DP9M16B005K1RASYB0091UHD28B00GAP3XV2B00EFD7HJKB004WNLV5YB009GSOR7OB0090F7DDIB00FGX508SB00FEVP1F4B00EZ8I0Z0B00EZ89FE0B00BBT9NJ8B00AWTC4SAB00CDMH43YB009XOINIAB00G2O5VS4B00GQKM6OGB009SNXP6QB0026SAC34B00FEJ1ATCB006CBANB2B004WNLXUWB00EZ89H34B00ECAGLGQB0065RPWHIB00EZ8AGIYB0091UFAK0B009V194C4B009XV1V3CB008HK43PSB0059M2RKAB009XOIRO0B00CIA85MKB00EFD49X2B009Y9OJNWB0091KYLL4B003JZ09ZYB00EFD6NB8B005GQO10SB00FRL2YM4B00EZ8GF6GB00ESXHYZOB00A843HYOB0097BAZMGB00919G7EYB005MG5A4IB00EZ8JDHEB00ESXI174B002KINLYWB00FRL2ZDMB005FSMGZOB00ED2PPWYB00EFD5A9OB007MTNJRIB0044TM9D4B007RL6TRIB00A2APAFSB009XHAWP4B005L9XYJOB00FPUXFA2B00GE7EQD0B00C16QVDGB00AEE742OB00915QEC8B00GUQ5HHYB00919H2HKB005I0EJUOB00A02V2ZKB00F916ISIB005G0MTNKB0092T9X6WB00EH9FQXGB00AFESH42B009ZLKKF0B005FZN7PAB009ZLKA8CB00AROMY6MB00AFESJ18B00EZ8HYMKB00ESXI0FMB00EFD48OCB009EAGWUYB00HWCGODGB00L9X5ONUB006CB2XXIB00KR7HH3OB005G0MTLWB009MBAOW2B0073JBGSGB00A403GD4B008MHR7OAB00915QFA4B00GUND32IB004E5C9GKB009VIHUV4B00H4QN8TIB008VO3Z86B00F8JSFGOB004CNDEV8B005I0EJEKB00AWKIA3WB005CKQDH2B00EFD7CWCB00FQ7GW5OB00G4KS278B009LQX22CB005GQO162B0099R5VJ0B0090CMNRWB00EZ8EES2B004YXZ8GAB00915QG6MB00CLSUPHWB009ZLIVEWB005Y2BABMB005UPHBN4B001PR6F60B00E6XHX7UB00EZ8IT1AB005FSMG9UB00FBPR7DMB0074A7T3AB002YV6MAAB00FGIL262B00J51TUFGB00EFD47FCB00ETF30MWB00919GY7EB00ETF2N0MB00EWMWH3UB009GSOWHEB002KILZ8GB00CLSV3GYB005HIYTR0B009GSOVWAB00FN2JVP0B00EH0Y8UCB00EFD5BO8B00EZ8EHHKB0074A7T1WB0091KWOUOB00HPLVC9KB00EZ8ITOWB002KIJY3EB009XV1UL0B00272LW5QB00FNHPYGUB005GS4H64B00919G56OB002KIPE56B00A05H2T2B00A03ZR5AB00919GYP6B0092T9TI4B009AIW7JUB00GYHO9G4B00B3NY0WMB00F1EZQPEB00FRL2V0EB00GAP3O4SB009YAVJTIB00GWTKWOCB00GK4GRP2B005I0EJPOB00EJPJNZAB00CMWH23CB001PR24O2B005C2KUZQB00EFD7G96B00EP2CDYKB0090FEQECB009DLI6R6B00BPYYJC0B00EZ898XSB008YUY5OKB00EH0YF9GB008STI44YB005L9XPCKB002KITJ0CB00915QFIGB00EKBK9SSB009F1OYDYB00EZ89608B001PR6F06B00A405ZT2B009ZLJ0S8B00H2VSIRMB0071A5WLOB00CLSUMT8B00G4EO31SB00ETF3H3OB00AM6YBM0B0091UHERCB005GYM8X2B00EKZK9Z2B006CBAL6OB00AGYOIUIB00EDTKNMOB00919G2LMB009ZLIY5IB003JYXCPOB00GAP3V14B00EFD578IB00DUIA0P4B00AM6YBPCB00F3MS2V4B003VOV7D6B00F1EZQTAB009EIGK7QB00EJZRJPQB00H4QN2LWB00CLSV1SYB00FIRQ4RSB00114T2XKB00919H4AUB004CJRRHOB00EFD5CYMB00919H3EMB00EFD7IOOB00933LEUAB0091LB2XSB001EILFGUB005CP61Q0B00F916I0GB005HRVR4EB00EZ8JE1EB009XKUZ80B005UPGJ4GB005G00NLKB004XJFUTKB00EJPK38QB00ED2PP7YB00BDBHP4YB00FPY6H7GB0062TYTNCB009EAGWCCB005GQO0WMB00EDTKOKUB00H2VSQHOB00EZ8AIAAB00B3QLATUB00919FLLEB005GSFG82B00HPLT6PWB00AWTC3O0B00FSQ13Z2B00919GZ3MB006JSVC3GB00AGYOJLGB005G00OIWB00EJPK1L0B005GSFFYWB00AUIZOOOB00FRL2Y1AB0096D96P2B00919HPAOB00EZ89CTIB00FRL2ZO6B00915QFT0B00FRL2T74B0098DFL04B00CMWH2VYB00ENFAZQMB00EWLUSH8B00A6YG25WB00ED2PKT2B00AA02VB6B00A03ZTOOB00FEVPOHEB009OB1TFQB005G4ZH3UB006CBAJZ2B009DPA3XWB00H3NY65WB00EFD5AU8B0097R69BGB00919FZWYB00G4ENQFMB0091UITKIB005I0EK12B00EFD46JEB001PR49S6B009WXRG8AB001GKSDPMB005G00NJMB002YV1ARAB009DLIBP8B00H8BNXNKB00HNMLLF6B00FQ7M78KB009XV1XQMB00HLQBDXEB00EZ8GJQ2B00AA02XR8B005CP61NSB00G3SQP3EB0090F6FMIB005K1RJ2GB009AIWMQSB00AKLK4KKB00CLSV2VKB005GQO1D0B00HFADMMQB0096E9QX8B009MBAD2IB00HC47P50B00EFD498CB00HBX01FIB00EZCFZKEB004FPM9ZKB00919G820B00CE2L7F4B005WPT10IB008V1XLG0B00G4EO7IWB00EZ8EK2CB00H4QN0CIB009U5OQREB009U5OQROB00AM3SHYQB009ZLJZCYB00AMRR2U2B009EAH9BKB00EH0YC2QB00GHWSCYGB00HBX02LQB008V1X5UCB006CBAHYKB00915QDECB00EZ8EFC2B00H6BW0OUB006CB2YQYB00ETF2OMEB00EFD7JSOB00AJYLGJ6B00EZ8I06YB005I0EIVYB00FPY644WB008M2TE6EB009LQX2BSB00EZ8JEV4B001GKQDB8B00FGILBH2B005X72DZ0B00FN2JVG4B00DFHO9ZMB00E9PNHXOB005I0EJJUB00GJKOSYYB00A05H3HSB004XJFUX6B00EZ89DYCB009SNXM3CB00919H40KB00EXLBNAIB00H2VSDHMB0053STRF8B005UPH2PGB00HQ5E800B00AOB48RGB005FSMGFYB00EFD7FNSB005G0MTOEB001GKM8CGB00ED2PMWCB004YY9KS6B00EZ89FXQB00E1XG0TMB005EN06N4B008FC6VSAB008M2T3QAB00919GA3CB00EFD58QEB001GKSDMKB00GUND2ECB00CLSULMQB00EFD7ONYB001CIWV9CB005I0EJ3QB00FNHQ61CB00AL5D0ZGB00GWUWT2OB009Y9OIU6B00FSQ20H2B003XR06ZGB00DGMUJ0KB00GCUSKXQB006CB2Z7CB0091KWNG4B009HQ5WXSB00919G776B009SNYJSYB00BNPYNHCB006CB2ZO0B00EFD7JUWB009MSCC7UB009U5OQTMB00A2CPJU2B005D4PZG2B009U5OQT2B009GSOWPQB006CBAFI8B005EMR27SB009AED84CB0054TBHWMB00DYAPWGUB00CLSUIOMB009SAUPM6B0092TA5Y6B005FZFT2YB005K1RF6QB007G04A2QB00FEVP1PEB00919G6CMB001GKO9G4B00FRL2XNEB009GSOW7OB009XWHAPEB00ETF23BGB00A03ZQGUB006CB31XYB006KWQJ7UB00G03NZJOB009DMASDUB00EFD4B9OB00EXLBKK6B005L9XM3MB00EFD6JTEB00BDBHCCYB00HGH6A5EB00356AL0UB006KWPE5SB005EMT8VQB004894XC0B00EY68C92B006CB30YEB00EZ8GCQ4B00FPY68XYB00HNMM038B0091UFABOB00CLSUO7SB00AQ22HHGB00AG8Z5I8B005GYM8MIB00AMRR3X8B00F1EZQSQB00EFD7IP8B00F1EZQS6B001PR6F56B009IFA30UB00EKN76CSB005X72FHGB009DQJUG2B00AEE76KOB00G14WY94B009XHAUW4B00GAP3QM8B00HWCGDNCB005FEQ1ZEB00I02UGLIB00ETF2V1IB00EFD5DEQB00GGRDVVGB002KIPE6AB0091LAI24B00ETF2QN6B00EZ8I1MMB00919G9YWB00CLSUK2CB005942NSEB00I02UGKOB00A4088A0B00F9IYGLWB005G0MTRGB009F0J03EB007RL6TICB000AUJ1NWB005FEQ1XQB005IZ3Y5KB00FGIKX6CB0090FG8PWB005DNNWQSB00EZCG01CB00HFHD0LCB0091UEWVIB00CIA82VEB00FEVP3YSB00EJZS8DIB00EXLBLHIB00919H1GMB005EMMO1MB00EZ8EKOKB0044TO4MIB009GSQMXQB009VN93AKB00I02UGIQB00CIA83SQB009ZLKNJSB005FEQ1V8B0092TA2N0B008V1XLTMB005CKZA7QB006CB30CQB00919G6KYB002KIJY4SB00915QH16B00EFD4AEUB00AKLE0JQB009U5WR8OB0067OVFEIB00H4QN708B00FRL316WB00BEKDYVWB00G4EO56GB005G4ZIPWB004899RWQB00CLSUHRUB0091KXI3QB009YAICKCB005K1RTIUB00EWQVTSUB0019RALRUB009YADF3GB00GVMWRUCB0096D96QGB005FEQ1TUB00F1EZQRWB006CBAOQ6B00G4MQQMOB008N2XCUMB00CLSV6SEB00EZ89CACB00BPYYKNIB0090F961KB00GJYQE2EB00FPBVBDYB00919GZFUB00DVS12B4B00GDM4C8AB009DMANA8B00HTW7EYCB009IFD6M2B00ETF2OS8B00EZ8EJ14B00AJYI0KOB00J2NQMG2B00GD6SODUB009YJYZUEB00EZ8I4OMB00H2VT1ICB00BDBHCUGB009YAICIEB005ODS0GEB0052Z9GF8B009Y9OL7QB005Y2BEE0B00I02UGMWB00CE4NDE0B00A05JZ6UB00AJVPDA2B00GAP3KBKB00EZ89BGCB009MBC7ZYB0071RI0MUB009DQ1NXKB005VRPP7UB00HNMLZAWB0092T4GXMB00ESXDK20B00GUND4HWB0091KYUREB005FSMGV8B009GSOVCAB00CLSX07EB00HHIHIQCB00G1V4VUMB0087LJOXSB00F916JE6B00EWMWHE4B00EFD44DCB00ETF2WU8B00FPUWYEAB00FRL2YG0B00GYPLLIKB00G4ENUY4B005LSAOCUB0055G0IMYB005CP64DAB00EZ8I2X0B009EIGE5YB00IAD7P4IB00EZ8EIB0B00HC47P0K'
p122
tp123
bsI19
g1
(g2
(I0
tp124
g4
tp125
Rp126
(I1
(I444
tp127
g11
I00
S'B009XSN76OB003O2C6T4B00DZVZD6MB00BSEGQ5KB001G8TFSIB005U8ELRKB000XR6UM2B007UXPCDAB00AEKXSW8B00AH8E4IOB00E5BDHMIB004HM2LB8B00GKPPPN6B000790YG4B00CP66BGEB00E24XXZOB00C83BDOOB00A9ZHI2EB009196NE8B00IZP1RO0B000E96WC2B005ERZ7OIB00DY1ZHOGB00E24Y98OB00JP9GLWIB009SRPV82B004VZ2AKSB004U7FYKUB005DM2W9MB004Y3M8WCB00AEKXVLGB00DQZ841SB00AAXUY4OB00KFRNG2MB00DH401KUB000YDCESYB00C2QTPBAB00E24Y2KOB004XWVMGCB003VHPLXUB009194HL4B0070YBSGOB00DEO2JC6B0007TL4P4B003O284V8B005O310WKB005O31192B006WOSMZSB00B1JTWXUB00FY769O0B00F687BZSB00GR456WKB00GEV2V2YB00F4E0QJWB00AEKXU3AB00EM9Z1B8B00FRYD0KQB009FN7AMYB0046YLBCWB00G75EK2GB0087RMUOWB004DI5YP6B00C79JO6IB000BY5PX2B004W4ZWNKB00AAJYP5MB003LY09UIB0053GANJYB004UPNVKMB00CBENAD2B000TRBWFGB00A6HMJTWB00FQ4T1CIB007ZVS5SQB000EGJJBGB000FH0TR2B00ABGLTOYB000BY1VNUB0013VH620B00FDQNEE0B003O2847WB000BY5Q5EB00GUXZ2G8B004U7FQF8B000XR30H0B000FHCUV0B003XDWYW8B00FRYCHGEB00CP66C9AB00ESG3CI4B0053CNNXGB00BU8DK5IB003G0DGESB00J8MOBTCB001YXXBBCB00CEJHMEWB00H2I8VTAB00DTU66KGB000XR30FMB0094UQ5OCB00HJ0ZUGSB000IEVUESB00ESG3CKCB009WQHAHEB003O2C76QB008TWCDQ0B009VEBJ4WB005T3SBJUB00C5132MAB00AEKXUVCB000NJS2S0B008GYN946B004UPNWDIB001LMH3A6B00DH2UFQ2B00GEV2V5QB00I0DHMO6B00FDQNI28B00A4GOZQAB00FQ4T718B001WLJYQMB000HLRMZSB00A4GP36GB000TQDV1KB00FNCQR2UB00EL8M4X8B004U7FYHSB00F8M3SQIB00AIBEP7KB00BII8B9UB0007TPRUMB004G91Q54B00F6M5PR0B005LR3L8UB00A6GTS06B007SPHPZIB002IZ4DFSB009Z09KI4B00BKWROYCB00G1XMP9EB00C8NQRMMB00146XD1MB00C79JMYCB003O2A5A6B007ZHI81EB003O284BIB00E24XW2SB00A6GTPAEB004UPGESIB003O263KMB0018R976WB004Y3OF8MB004I9SUQUB00GL9P22AB00CP667TKB00E24XOW6B00593R49SB00E8GME9WB00686TJAMB004Y3OFFUB000WCU0SIB00AEKXUHGB000BGOYU0B00GL9P0F4B00C5KLBJ2B00A6GTQGCB004QH4PFOB00A6GTOEQB00J7XQMUIB00DH3ZV42B00KFSQWRMB002FH1BAOB000G5W95IB008RM5UWGB00D9DMGPCB007UXPAKUB00HJ0WRGEB00BBLM80MB00IJFBTTEB00EOOS51EB000EBHJL8B00543O92SB003O2G1WCB00AEKXRVUB0043KX4BUB005LR3LEYB00D9DMG9IB00D9DMG98B0002TU1VWB005FKIT6MB00FQ4T1U0B0009NYBYEB00ECEQZ7CB00F8A3GQMB00CEJIBQKB00GVDXN22B00AH8E4LQB00GSNIQ3GB00EZ89P3GB0043TB9WMB004JM09JWB000BGMMZ4B005DBARHCB004MDIHT2B003O2C6WGB00FQ4SYJOB0002TU1T4B004U7FYD2B00EZ1LW9IB009F8007QB0009PTWXMB001UE6XX8B009LDK214B00H8NUMDCB0023W61W4B009ZXKC56B00F687LYOB00FSFMFWIB004WNFI7QB002U0TGQ2B00CPPR0REB003UPYKYEB002UOZGW6B0094UQ6Y6B009ZXKB9IB00AEKXVA2B004XUGPHKB00J2163PEB006BEHS0YB00AEKXTBSB000FHGB1KB00I0MRTUOB004UPNSTQB00IDR6LS2B00GT1RKE8B00D9DMG3EB00D9DMH88B004G5MY4UB009R0M06GB004NS1MMAB003O263XEB00DQZ8210B00F687OKAB004W0EU0AB00GLSDDXGB00GL9OVKOB00593R14QB003VHKTSWB00E24XO44B004Y1PAVAB004LF8QCYB00BKWRS1GB009BC6AIEB00E24Y6VYB005DM30LGB000MJVYFOB006WORKG0B0058V4P4SB000EA8NJQB0057IP1KOB00FMUJS42B00E24XTMQB00CBEMHTUB000CN18HOB00I2UXDQIB00EM9VRVQB009BC6HRSB0020GX3X8B005MJ4K96B009XNLKY0B00AAJYR3CB009SCSPHQB003IMH1GIB00E24XMKAB000XR4P56B00EY6KCCWB00BNPKBFUB00HHHYYWOB007TNOW3CB00I5XJPJGB00C2ER0VOB00FY74HJYB007JNGUX2B009H4A4WYB003ULDQTIB00DZVZEO8B00GL9P1FSB00E24XIAEB004LF3OCQB0009EQUDSB00AZL7TEYB00FRY8TMUB007TNP54WB00ACLZQXIB005P6WKCAB00A4AR202B001E4AHR2B00A6GTR52B00KEA26PSB006BEHO94B00ANRUFPUB00B54QGCGB002ZCAHQIB00A6GTRRKB004UPNUJYB00GP4ZN4IB00A6GTQ1CB004S9LD1OB00FJCOM6WB001CXZJZ0B00EYI6558B00EDHQHZSB005PPMNBEB00EY6CBLMB007T9GNYMB0087DSCW0B000YDG23MB006KZ2GSSB00686TI6WB00EYI6AH6B00A4GP3NYB000H8PT2EB000H8PT2OB009CDISD2B00K7C0Q3MB00C83KKN4B00EWGPJP4B007L4TKK4B002PNYVKAB00BKWRUPUB0009BSTD0B009IFCWVIB00GY87TEWB00ESG3CHKB002DYRRQ6B00686TETIB000IEVTB2B00DZQI03UB00A8PKRK0B00A4GP294B005CT27TGB009VEMCSOB00FG949ZCB00C51359AB00F49N554B00C5135RCB0011U3XEIB00C83IKTKB008BTD1TOB00ESG3CJ8B003RQJNZCB004RIB18GB003O284MWB00CHAJDXQB003TYIH6SB00C8NQRCCB004RQ95Q8B000FIF86IB00A6GTQBWB00FRYCFEIB00BNJY8XWB001PM7O6KB009SRPSP8B0081QDWPAB00C8NQRAOB00ACLZSG8B0016K7PQUB000FHBARKB005PPMCLAB0020GW3VGB00GXEPS0OB005CT28CCB00AIBEPBGB0002KZ1AMB00HFUKY72B008S9E0L0B00804DL7CB00A4GP2SUB003Y2TMVOB007BMRH6UB00GB118BCB005LR3LBMB00GIBTGB4B00GP4ZUJ6B004Y3OEXSB00H8NUMKAB000IEXSP2B005DBAPJWB004WN43IQB005B7S1AIB0070YBR1AB009JBJUSOB00EFI4S7EB005O310HKB009F1LS42B0049TUUFIB00EWGO6MQB000IEVT8KB000IEVT8AB00GEKGBNKB00CDBUH6QB005Z7P89QB00E24Y84YB0061MSF2GB0064IQ63WB005J4C9SIB00FEQ8ORGB000BY1V3AB00EY6DFRGB004UPNVYIB005O311OCB00DZTZ9OAB00ECSLCA8B00FH0Q5Z2B00KFSRC4OB0046SHXDOB00436GCYAB00AU04GFUB00FQ4TDMQB00CDBSCY0B00A6GTPXQB003KH8YVWB00BP5KKC2B00F8L7NREB00GH5EZKIB00DS9JZYMB009H49S9YB005LR3L3UB000IEZMLUB00EK41EF2B001GJKY96B000IEXSNEB00C2RR0WAB004BUT0LAB000XR6UK4B004NCZLGEB00EM9S1I8B005C9AC5WB00KBVQHFKB009DRKEHUB00DZQKB0KB00C83BDNAB00CQ88K4MB00E24XYRG'
p128
tp129
bsI20
g1
(g2
(I0
tp130
g4
tp131
Rp132
(I1
(I450
tp133
g11
I00
S'B00JOZX85QB00FL3QUO6B00GH5E7OCB009DRL6POB005MFG214B00ESJ5GQMB00EN6QBZAB003AT0CD8B00G6OSNTEB00454ZBREB005I0EIOQB008WNR4G0B00F65P0FYB00FEVA15EB00F65P0F4B004ZMUCFWB00EU3DJ38B009ZOI8DIB002CXBSMMB00AKAAZLYB009F7MBLKB00AY7YMOOB008MC21HIB00529Q2REB00AG1I95QB00AP8S9BYB009BQWLQKB00EU3DA14B00FMBJAXKB002MUOB6KB005FEQ0R8B00B5SQNU2B00AQOBVLWB00B5SQNUCB00EZAC5DGB008L1WLBQB00G4195IMB00GG7WONCB00FMM1AE6B00ENHSY2MB009SF443WB0091UCEHMB00GNDX10YB00GDQRYX6B00AY7YMMQB00B6SN1MEB00FY776YWB00GPNH9J6B00GN5RI38B00EKR2Z7AB004E6T7VEB002MUOB4CB00BWE7CAEB005FEQ0TGB005I0EIAKB005O313RWB004W25E44B00FD63THCB00GJ98AAIB00FTM7IDGB00G51427AB00AFK1QX0B00A05395SB00GP5W016B0091UCO0YB006P5TPQ4B00915QD9CB008BBH5F8B000RJ014EB00A405K9WB005FEQ0VOB00529Q2J2B006CB32TMB00EU3BUESB000NI2D72B009DQ1LWSB00GOG50FEB00F2JP2J8B00FRCR342B00AA00SLQB0000CH8HLB006IY2924B00GJYV1WCB0019RIUV4B00GG7S0IUB00EU3DEOWB001BO3IXAB006CB359EB002MUKRBIB002MUKRBSB004OC04NSB00476U28IB00E5PC13UB009FGE9PWB002KIJWLSB006GIFJ9WB00GRCLC48B00ANHEAYWB00HBLE85OB00FKH4B94B00GTZJHHCB00GUEOW1SB005HURLNWB00E5PC6KSB005PHQKLQB00EZDI7S0B00ESJ5GQCB009T1L7QCB00E4YU620B00D09YRP2B008REF7YUB00E5PC7T8B0065RO2J2B00ADVVCTYB00FBEP8RKB0030GSIZUB000Y43MZMB006CB36N4B00AQ8TWNWB00G5142GGB00GL9S9CKB00CDZN4E4B003SOP2P8B00H9ZO7VCB009N3I5N4B00EFUGEA6B00EDTK4FKB00GCGIMO2B00GPW1RFEB002FGTHXIB00IZI61HKB00FQ4TGZKB0056RJ7K6B007ID5TA8B007H3TCVQB00DE0Q8AOB004W6KALMB00FMBIZ22B00FDNCQJCB00EU3BB1AB00AKAB3UGB00AG1HY7KB00DBAMPPOB005WPSLJKB007ZUTQ4EB00GJ987QAB00ESX4RKOB009R89YJYB00FD3BEJ0B00FTNAUEYB006P5T79EB00EU3CX0SB0061XWE4UB001GAB2SCB00EN6Q0QUB005FEQ0SCB00EU3CE7AB00594656KB00G20BSFSB00CRM0YYQB005I0EIFUB00529Q5NUB00BF3XSAUB006S4ZAC0B0056RKEH6B00A6WZBRYB005MSDLS8B00GIKV5K0B00802JSTEB00ESX4PP6B00GU80YH0B00FQ4TKBAB00E5PC2JSB00GL9S8V2B00A0537Y6B00AG1IJ3IB004ZEUGM4B006P5TR8UB00GUEQRMKB003ZWWURQB003JV37C0B008HNQ66OB00A3DQT68B00EZHJG8QB00F686EWOB006P5TQC2B00454XCHAB009KC4KI2B00CP5X55UB0061XWEBSB009AED3B0B0074U02HKB009MOXDUYB0044G3TOUB009MOX9W6B00AY7YMFSB005HURMG8B00ENN1XT2B006KWOSLYB00CDZN9TYB00DE0QLD8B00EU3C8W6B006P5TPJGB006P5TSH0B005HGLLPUB00JENPY4GB00A8SB0W6B00GXKOIHWB00GTZJF5QB002KIRDF0B00GUEQR7AB009DQH7TEB00F65P0EAB00G6RXHUGB004NTUD92B004W25F70B004142EWSB00E3OC8NQB009R8OIN6B005NCR5L2B005HGLLUKB00H1VQ816B006L0DDWKB00E5PBX2AB0074346TMB006P5TLB8B006P5T7PSB008232EMOB00AJYJ9J0B00E5PBZPAB005FEQ1OAB007434778B00F971JE0B005I0EILEB006W54Z08B00FQ4TIUSB00GR64UIEB00DBAAWNQB006CB34LSB006IY3CO8B00EZHJLO0B002KIPD0WB0091UCHJWB002MUOB74B00EKJRSGQB002MUML1CB008R9AN0SB00FQT5OMEB006YEPPGKB00EDXWSGOB0029BJ7FCB006YEPPG0B000I7Y6M8B00AQ8TUVGB00701NDAGB0074340WKB00I4DXLAQB00FD3BKEOB008BBH5EYB00EU3CSSUB002MUOB5GB002MUOB56B005FEQ0UUB00G5142DYB009ZLWHM4B00B5SQNTIB001GAD2IKB009AED8OWB00EU3D5M8B008L1WLC0B00HE0NT84B006P5TPD2B00GCGIMRYB00FEO0XLSB00FMM1EJWB00AG1HUKGB00F1MU6GUB00AQ8TQ2OB001GKSUHIB008BBH5GMB0040YZOZSB004ZGN8XGB00BOW1VBUB00C4VR9S4B004G6YDK2B00EIR1QIQB0049HMVDYB00AB5ZVASB00GS6RT2MB005FEQ0WSB005MFG5TSB00FMM1BBIB0091KZV36B0056RJ8E6B00ECL6ZNEB009DQQ088B00F2NJSR6B00GJB9DWKB00GJRVU0CB005O314U8B00A0S3KWCB00G7YL642B0056RJ7M4B00AY7YMJ4B0074344GMB0056RJ8CIB00BJZ9SXAB00A01M3MCB000NI2D68B005HURL3MB009ZLWIV4B00G9BLSXCB00F2JP2KWB009MBC0ZGB00AY7YMHGB00E7YIDRWB00595QT4WB00194A6AUB00HR1YE7KB005O312RSB00F0DHNHKB006YEPPJWB00FY76YV8B00ESJ5GKIB00FMU7HOUB00D8FM0QGB00EU3CNOEB00FY79HAIB00529Q1FWB00G419D3EB00EU3BAS4B00FPH99IWB002MUKRAOB00AJVPI7UB00187C2AAB005I0EHXSB006P5T7XAB00JOZX856B00DE0QNI6B007H3TDBKB00GTQAMGGB004Z90F1QB005UPGA22B00GZ6QWU0B005HURKHEB001GKO9GYB00AKAB4PAB00FQGPM5QB00AQ7UWP0B00EU3BYX0B00G0J7QLQB000X90KKSB002MUU7O0B0074349NUB00GRCLC0WB00E5PBY9MB002MUZVKKB00ESX4ND0B00BLPWYMKB0059H7WBEB00ALMUR1EB005T9I2I4B00A8MU7SAB006P5TBUOB00FMBJDPUB0056RJ7JWB0014SC4V0B00ECJ96T6B00HFYXG8WB00GU3X4DGB005QEFAXWB00EU3D1I6B00E4YUAR6B00GY06FHWB0090BLSN8B00A0C2AP6B005IYQK02B00DWVM0QQB00F8MHGI4B007026CUIB00G619PDKB00G9BM9JYB0061XWE54B00GVMZ3I0B000T4EUX0B00529Q5T4B005IYR330B0074344MGB005M4N30IB00AP8S8M4B005MAJKD6B00743471YB00A3DRDT0B00AG1HGPAB00G418I6WB0056RKEIUB004XNCG3OB00FQGPK80B005O3121EB006ZC1DS0B00FY77FH0B00EU3CIQWB004XNCDDWB00AQA41WMB001EBJ6ZYB00EN6S05YB00CE00NI8B00ENN1XQKB009ZLWBWAB00AQO05OQB00EZAC44GB00ARNPWEOB004D4EFFUB00822617YB004RPC77SB00GRCLC8YB004Z9IWY8B004G3CWOEB006P5TSM0B006P5TKL4B00EU3C3VWB00EN6QC9KB00FENZKXUB00ENN1XSSB005O312C8B00A8MU0RIB00GNDW7C2B006EI4EFOB006L0DDUCB00E4YU2F6B0092T91HIB00F684UU2B00G2KFJ7QB006EI43XWB005I0EHTWB00FMBJUJ4B00GYIEZW6B00F25K28SB007GCTZ5QB002ZOLRBUB009PSKTEAB00HFHA7POB004M0P9YGB006P5TA8MB00C7OOLHUB004G6ZPLIB004LBFZE0B005I0EI46B0061XWE5EB00AE1I27S'
p134
tp135
bsI21
g1
(g2
(I0
tp136
g4
tp137
Rp138
(I1
(I171
tp139
g11
I00
S'B00135Y1MEB008FA9UOYB00F2DA9HOB003DHIROSB00A56Y5NCB001362GIOB006XM1Z5IB0052N3PESB0052N3XVSB00138TQ62B00I9OCI7CB00H57U650B00E3K9MGQB00F2DA9JCB00F2DA9JMB003DHEVVQB00F2DA9J2B0052N3NWWB00AMZHFSSB00G6EYSBGB00AMZHJGQB002H0DTL8B00I5VF7XGB0052N3N6SB00GOZBL7QB001364DSKB001364DSUB001364E6QB00H9ZL9O0B00GUGTR1QB00H9ZL9OAB00F2DA9HYB00FFVWAVGB0013606XGB00F2DA9P6B00G6EYSD4B003DHEXXMB008FA9UQMB008FA9UQ2B0052N3OEOB00FZV2MNCB0052N3JIUB001364E2UB003DHCTJCB003DHEX6EB002K51KA2B00FQNAGPKB001O483BOB0091QDMKYB0052N3DO0B00H9ZLBCUB001366FIGB0052N3E1CB00A56V94KB0052N3LKGB001362BQGB0064VMN1IB00I5UI87OB007TIO1TWB00BFZQRDIB00F2DA9G0B001362BHKB00FGPYIHUB001364E8YB00ICMLXUEB0052N3HO6B007GXP48WB00GPIOHQ4B001364EHKB00138NKWIB00FQNAFO2B00AF5F27QB0052N3K2KB00FFSAIH2B00A56WOQWB0052N3GL0B00138UYG8B001366EUAB0052N3TN0B003DHCU6EB001366FCWB001366FC2B00FFSAJXUB00H9ZL9FEB00FDZ8CPCB00I8VPCEWB0052N3W8MB0013606S6B0001H5VU6B003DHGNPSB000CFTDQAB00C75LTI8B000ZE35JEB00H5JTX5WB00AMZHR3QB0013606QIB00GPIO6PQB00F2DA9ISB00I89R5L2B00FQNAE6QB00F2DA9K6B00FFSAJ3AB001366F9KB00FFSAKAWB00FQNBMK8B0043EGX0AB0052N3V7YB00FFVW54SB00934RXM2B00FZV30ISB00AMZHEG6B00G6EYSAMB00FFVW6X8B0052N3F16B00138PO8GB00FGPYHH6B008FA9UTOB0052N3UUWB00135Y1DSB0013U3WLAB0052N3MGOB001364DX0B00H5JTXBGB002LQN0XUB00A56VUAIB008FA9URGB008V1ZCBCB00G6EYS98B00A56VHTMB003DHCRTOB0013606LSB00C75L99CB00F2DA9MYB00I9OCI8QB00AMZHH4UB0052N3LDIB00FFVWHU0B000RIAGZ4B008FA9V66B00H0BUI0EB0006PJWDAB00135Y1UQB00FQNAU3SB00GIEX9M8B00BFZQSKKB008V1ZARIB00BFCR3BGB00G63KZ6EB0013U09HKB007TIO1UGB00B6ENRMCB0052N3OUSB00G63KYSIB00I5VF8PIB00I8YK4MYB00AMZHQNCB0013U3W9MB0013606TUB0013606TKB0052N3S0YB00F2DA9LAB001362B8EB0052N3MPAB004R23PI6B00FQNACYUB00I5X5NJCB00G63KYJWB0013U3W74B008FA9UM6B00GOZBK7MB00IA4DF14'
p140
tp141
bsI22
g1
(g2
(I0
tp142
g4
tp143
Rp144
(I1
(I446
tp145
g11
I00
S'B009MOXKPCB002MUZVF0B00GJV7TY4B00BJU8G9CB00E6G9EU6B0033BMPJMB00820XJZ8B00FXHFWXAB00B4ZU4SIB000VHPUCAB00FJL0BHMB00C51303QB0047BYR0WB000W0J5D6B00F77WYWSB00AB0UB3UB00DSXB9EWB002KIJWFYB009OS3QQOB002YUZN4CB006EI3NISB00FMM0NDKB005906WTEB00GG4FGP8B001169CGAB000VS7B94B00IG90TBCB002KIJX3AB00GG8585MB00G3KZZ88B00HE0L7U6B002KIJWDGB009F5PVEQB00ENZJMMAB00AY1P3ZMB00ESJ5GLMB009G41ZVYB00801YYSUB00GABGBVKB00B58VXGQB00G204VMAB00A3DPQVMB00FO9KDO0B0096AEBM8B00A0RYP9AB007PS5PXMB005WKOZBSB004MC6HSGB00EOQGC08B00FIZC5Z0B00ENZOQHGB00CQ736I8B00AU9J6GAB0043PD6HCB005FEQ1H2B002M441XYB00AQ7UWKAB002M41SLWB00AQJ0RNUB000VS7B9EB002MUOB24B00FJL041KB008D8VSQ6B002YV1BGKB0047RXHAMB00GTR43UQB00HRTCJYWB00AWS43KIB006P5T7Z8B005FEQ1F4B009N1Y5C6B002MV3X0OB0098G9QTIB00G7A8D3IB00GG4FEK0B005FEQ3IYB005MIYS6WB00590786UB00487QF3WB00GS629RCB006P5T898B00FIZCOYCB00B0CTD28B00E5OHDIEB00GG4FHBGB00AYB7454B002YV6MUAB002MUMKZEB00GJSLYS4B001167NHUB001167NHKB003ZV5YUMB00FXHGPYUB002Y3V0F0B00GK7SX42B003VVQQH6B00GYIEQSOB00A7CRZO0B00DSXB99MB009G41EHEB00AYB747CB006LFJX4WB00FX8QAYEB00F62DKQIB008E0EXB0B001IF63EIB0091IBS9OB0064D4X2SB00476PKQWB005NDVRA6B00AHI9SGMB005NDVRAGB00FBTC4DGB00ESFUE68B00G3Q70FSB00FIV67B2B0033BOEGEB00G0J7QOSB008VEHIXOB00GVR8ANKB005WKTG76B00FLWO54EB002YV2W6IB005HGLLNMB00GIOBZGUB00AG58GTGB009OS3VGOB007T3WTU0B00AQ7UWY6B00IXS07NGB00F25M7T0B00GU7XAG8B00BCXFVZIB00EKHMETYB004NF9J7IB00AZR0KL2B007T3WT0UB00AZR0KLMB00AB0U9DMB00ADZ2Q2CB0039YAHTSB009F5PXP8B00FO4YUXKB00AG1GF66B009SAUIAAB00FCU6O12B009G42FAYB00GIOBOCKB0056RJAT4B00FO4YUGMB0056RJATYB00A3FUVT2B002YUZMS4B00GABGEN0B009F5PV6EB007R47KNCB009OS3JIYB005942ZVOB00I5X71WEB00GS67E7WB0065JH774B00ENR2U7MB002KIJW7CB001V4XKGAB00FMM0YZ2B00G6VMZ4GB00G20A7H8B00FA8K7ZUB009YOOYZKB009OS3YB6B00IJGWDAMB00EDSM6BGB00G1XB42SB00FG9UVUOB0096SFQO2B0019RHW9KB0062MYSYEB00F9EUEWGB009D7NP12B00EKTS0EKB00476NRO4B00GZ65PVMB006WFCD98B001O268CMB00A0VF7ZMB005FEQ1MCB005NDVR7YB00AWS43FSB00GIO96H0B00FJL0HDAB009O0NLNAB001G7RTHIB00GU7XWTSB0065JFIRAB009G42IIIB00AHI9T4SB00GIOBP2EB00DSXB8GGB00FILR32YB007CF2P9AB0058XE1BSB00FO4YV0MB002YUXQJQB0058W0Y1KB0033BMP5GB001169H7EB00GABGFM0B002J8B1M2B006GJ90N2B005WKRX6WB00GOZATSSB0065RP336B00G6ZRJWKB00FZ2BR28B009N1Y84GB00HNMCPUQB00590789CB00GVL99WWB00E7Y8GCYB00BXS7D1WB00EKTS3YWB00ESFUE86B00GIOBMP4B00GS67EVSB00EOQGA32B008SF1J22B005906Y7EB00FILR49GB00GGSKT60B005903MQAB00BP7WHOOB001O243D8B00GYC36E0B0064CYBCGB005WKRIIUB00C512XVQB00698J03KB00HS44LUQB001169CFQB001169CFGB0017MJK6AB00BHRMYX6B00FZL9U7IB00H1S5AOUB002MUU7POB00GIOBSXUB00A1FBAWQB00F2E8BH8B00808TPEGB00HKQ581IB00GU7X0OKB0047BLKU2B00FCCH5BIB0065JI2T6B002MUQ8DEB00FNHKCL2B009F5PTRAB0069VH1VKB00G0KBAOYB006R0U4AIB009C81DXOB002MV3WT6B00ESJ5GMGB000KKTR0EB0054U7U1IB00GIOBR4AB00FO4YUHQB009OKH582B00AQ8TK2UB00FSG81OIB00GS6RMBKB007PUOLVMB00A0C2J9IB00FG9UU1OB00GN4ZN04B00EZB1NAGB00A0RM7HCB00GHO4FDGB006KMHKQYB001RREZC4B00HE8JF0WB000EX67CIB00GT1QZOYB002MV3WV4B00FO4YUJEB009MOXN9UB00DSXB8M0B00ESJ5GO4B009N1X1G2B009N1Y6CUB008L1WLAWB0059078GUB0062MYRWWB002MUZW22B000UVVQJ8B002MUOB1UB00GJ9SNN2B00DQ7D8K8B009RB8B9UB002MV3XAEB0043PF4UEB00FCU6NXGB0048GNGXUB00GTR43VKB0056RJA6MB000VS7B9OB00AYB742MB005NDVR9CB005NDVR9WB00CPKDSFMB00BHRMXL4B001167NIEB000HHOFPMB00FG9UUK0B00ESJ5GKSB009OU0KEIB000SPJU4YB00HG6DV98B00BN61J1YB009QJLWMQB0091IBSN0B0019RHWDGB00CPKDQZEB00GGSKMZSB00GGSKQI6B00IN8P9CAB006YEPQKKB009O0XMRAB0064D4X6OB00AYB746SB001GKO9GOB005XO4M70B003N7BZKGB0056RJASUB0036AQD70B00F2RQNA2B00A6YA8ZMB00AQ7UWPAB009LQ3T70B0049HMKGMB00ESFUEGSB00EIIDLNIB00F77WYD2B00G23FNA6B005HGLLM8B00A2Z49FAB00GJV7U6QB00EIIDQFGB00ESFUE7CB0059078OMB00G5S0HE0B0071UOUHGB005WKPKIUB008SF0NMOB00ESFUEEAB00HM4T7UQB00FXHGSUGB00GIOBV4GB0046NHEDIB00DSXB8SEB002CXHBMSB00801YV60B006EI3NTCB00GJV7TXUB00AYZ3YZYB00DFVWKE0B002MUQ8ACB0068VYOJIB009ACENZCB001GAB2PKB004W1IV68B0059RKGGMB005HGLLP0B0056RJAUSB0056RJAUIB009D7NUI0B00FO4YUFSB009N1Y8PUB00AYB74DGB009PN8LRMB00AP5WO8GB00AP5WO8QB00E4YVJOEB00F77WXSIB00GYIEP2QB0059078VAB00A1FD1AAB007I5QYF0B005HGLLK0B00GIOBNHQB00ATGD5ESB004OC0550B00801YZCKB00FMM14T2B003JJO3C0B00AZR0KI0B00802JO7AB006LR22TIB00H1S56RGB0081ULWFIB00F77WZEKB00AZLVOW2B00GYC354QB006LR2ZKEB00BN2H91WB001GAB2QOB001GAE5SQB00F89CVTQB00EP36Y44B00EZABLAYB00BHRN228B002MUU7P4B00HFYSQ4GB00454OYL8B00A05JZU6B0071UOWN8B00EKN78KIB00GABG5LQB002KIPCDKB000VS7B8UB002MV5QMWB00G3Q707QB009TYCP4MB00C512ZH8B008N3QG8QB00F89ADYQB00GC4LHHSB002YV1AWUB00F8GSVZ2B00AG1GU4SB006LR3GXOB009F5PWP4B005942WQCB008L1WL8EB007I7CH22B001O243C4B00G44AVR8B002KIPCF8B00GABG354B000JKBZUKB00ATGD4GWB00G0J7PG2B00596CCV0B002MUKR9UB00B7A32ZCB001169H6U'
p146
tp147
bsI23
g1
(g2
(I0
tp148
g4
tp149
Rp150
(I1
(I578
tp151
g11
I00
S'B0058EQLS8B00FHCH5UEB005KJ3QGGB00DH403DKB00E3W3N1OB00EJZWGEAB005LR3N88B00GS8JMVGB004QQ1LMUB00ADVXB7KB004SL1SBCB00GS8JKDGB00F6873H4B00GB2PQH8B00GPZRX2CB000FE5QO6B000FE5QOGB00FNHL8UQB005LU7ZT8B009Z0A5N8B0010Q34J2B00G6Z08NMB000X7QAI6B00IX291AMB00DDPYWKSB002I0CINCB000VI2LQMB005Q27ZE6B004U7FWZCB00EJZUNWMB006IBPV22B00E24XUOIB00FEL3Y58B00FHCGO60B00GVDXNVSB00I1ZQVXGB00744HO9AB003IJNDWMB00FM1YR10B005Y72VH4B006948XB4B00HDFPJ4CB005967DG4B00GPZRU8EB001O19UFKB005LR3KWCB00GPZRZUMB00I1ZQT6KB00FNHLWJ8B00AV8G6KYB00AV8G5U0B000G5TFU0B004E6T8BSB00CTSZ70YB005KJ3SWIB006BU7UGAB00DH40ADIB00EJZVE8YB00F8M0NO8B005PPJS8UB00AIBEPAMB003QYC01OB00DHUWZDUB004FOLAEWB002ECR9XSB0036R6OSGB0058EQHU0B006IBPZGYB00AFCGRNCB003VUZD6CB00FNHLR8EB007ED8TTUB009SRPIQWB007ED8RROB00E24XQNSB00I1ZR0POB00GCH2PVWB00DXRYPNKB000WZBRUAB003QY9SSMB00ACKQ99EB0036VNHJGB006IBPYBKB00F6877U2B004JKW1RWB00I1ZQXK2B00GOFGVWGB00GW8NL00B00ANQKLBOB000F72UCYB00DH3ZQOWB00AFCGKKMB00I1ZQX98B00F687SL0B00EM9QLD0B00FHCH914B00HRLBVGMB00GTLQJ22B00I1ZQUG4B008YEUDLUB00FNHMJVSB00JH355HEB00EJZUCQYB0011U83XYB00CAACWH2B0073LCX0YB0047DSCDSB004DIPH6CB003IJNE08B00GDKVTBAB00FZ3X6TEB00A3IW0F2B009O0VZJMB004097H2QB00AV8G6EUB005463ZBGB00FI26MFWB000AOJHFAB00E24Y48YB007IGMR3MB00GW477LSB003IJOTLGB000WVP9SKB00CHRFK54B0015U15YEB001V8NLGKB00IFHNZI4B00EJZVKPGB005LR3NDIB00BR8ZOSCB005LR3MSEB008U4LM2IB00HBAC7XKB00AV6XCX0B00KFRMMAOB00DZW0MUIB001WLEUU2B00DH40DQCB0059B6ZFYB001OXGLMIB00427N95AB005LQ6XFYB00F11FYXQB005LR3NB0B007W6UDG6B0068GYEI4B00DHUWXK0B00FHCGRSAB00FNZLXJOB00GW8NINAB00F4BW9G8B000A1KPZ4B009EVLUBEB005KJ3TN6B00FZ3X36UB00GK5B9M2B00GIOBS3AB0057FCEPMB00FNHMA4EB004EE1MX2B00DHUWINWB00GJYH16WB00F4BWAUSB004W1IWQ2B005OUVFHSB002UT6O9UB00CHRFJP0B00AG4396WB00GPZRVEMB00744HON6B00E24Y2WCB009SL5J2GB003IJQWUWB00EJZWNA2B006K4N54IB00FNL5TDEB003JHUG0KB003IJOTVGB00CO38CM4B005KJ3TLSB00ELMNIG6B00E3FQ2EQB00FNHLSU6B008H07LX4B000MWWFYKB008H07LXEB001RP2M8KB00GP5NT0CB005ZG96PEB007QETIUGB00HPLU05CB005OO4IQEB006ZBPECCB004OQ3D8MB00AR4X9ACB00FHCGUMIB00FNHLUZEB005LR3MQ6B00GB2PRAYB0053FO620B00EJZVRR2B00268DUVAB002I9RVG2B00I1ZQSWAB00EJZVYRUB00I1ZQWBWB00EJZW9FGB007QETJ50B00FNHLYMIB004RQ1GPGB00F687FEUB00I1ZQSHKB005CV1SZSB00FO4EMU6B0081K8PDUB00DJB82OSB00A3IUBN0B003YUW2LIB001IV62XEB00F4TAYQ2B00FNHMS28B00DH40C2CB00AEKWS9CB00EZUGSKWB003IJK00KB007ED8TCCB00AKZQ7YSB003A64AY8B005KJ3SH8B0007TRFB6B006MZA1Z6B00A0VM4USB00EU5ER00B005LR3GBWB005LR3MXYB00FEH0GQ2B00I1ZQVBIB00CH9RODIB005GJUV36B00GW8NK88B006OC0M0QB00CSD51JMB00EMM58N6B000F6YDY8B00AKKBEDMB0082LBECMB00GPZRUQGB005P9SGLQB0030YV9EEB004016CR0B00796WEM0B00EZUGGAYB00H589NYEB00GIMZWS4B00GOFGVBWB00BCW5CTYB001387UCOB00GSLJMZYB009AG0P3CB0059B6SPQB00BD5MBJEB00GPZRRRIB002AT4QJ0B00DZI6WE2B008U4LURUB00DEO2I18B00GP5CBHEB002I9TT5IB00DY7MSQUB00EZUH694B00FNZLWQ8B000J23EIEB00FNHMUEOB008U4LV0QB00F4BW8MSB00GB2PPI8B001JPS08YB0034YMZ0MB003RQAPG8B00BR8ZODWB005LR3MMUB0059B70Q2B00GIOBLPKB00EJZWT92B00EZUGUU0B00I1W3FNSB00AMCH6CGB00E24Y5SSB00FHCGHKSB005HNZIKCB00E24XOHQB000F72LXCB004018FQGB00F4BW7O2B005LR3N5QB00BFYLFPEB007QEVSG8B005P58CDMB00353KV44B00723752EB00455PHUEB00DVL2AEYB0067O1LK6B00F687COSB00EZUGDJ8B005G5RSQ8B009CDICPGB00GJYGRKIB00632MIO0B000RTY2FSB003IJD0YIB004FOJGCAB00B5JALN6B002YS0BGYB00131LIQ0B0058EQMVOB0059B6TKUB001WLR6SUB0057D5Y6AB00I1ZQXSOB0092T6QCQB008777EW0B00AZL7BJMB009O0W41UB0072375I8B009W2LLKUB00EM1WRIGB00EJZVHVIB005QYJ4JIB00E24XLN8B005NGLRI0B00BPTXXOAB00GW8NBKAB00EB3W2AIB00CHRFHF2B008YRTEUSB001QJ1F6CB00F687PSQB0073LCZLGB00AAJWE64B007DVHMP0B000E8JD06B001PH823OB00IOYJNCKB00FNHM8T6B001QJ2I18B000A1MRE6B00EZUH84MB002I9VMRGB000LG8JJCB00632MGZGB00I1ZQSGGB00EZUG6LIB00ISDLS02B005LR3MUMB00BR8ZOTQB00ABV1XCMB00GFNAPAQB005PPJTB6B0059A2I3IB00EZUGJC4B0072LJ5L0B007H6XQTCB004UNVNW2B007I7C1U0B00HRLBTXWB00ESX6ZBSB00DEO2IGSB000A1J74YB00HCR7JH6B0091I4S8MB00I2UWRAGB00632MK5MB00GB2PRSQB00E24XPHKB00GPZRSD6B00F4BWBACB00FNHLXTWB002ECP6MOB00117RH5WB000JLGH4SB0058EQN36B00CTTNZYIB00577W4FKB00CJI0TIEB004091ZAQB004091ZA6B009SRPDFSB001U3UQL4B00ESEM9HQB00EZUG95GB0058EQI5EB00632EF8CB00EJZVWOKB00AW6IBQ2B005LR3NGAB00F687540B00FZVL6EIB005LR3KCWB00GNDXWI0B005XXOYQUB00GCU214AB004093V2GB00GIOBQ1EB0062CDNSGB005L9XN8QB00AOAIGHUB005OMW0JSB00D4UCA7YB00AR4X844B00KFRMX08B005GSF24UB0072376KAB005OMW08OB007W6UDE8B00F6870P4B000BO4S62B00GPZRXOKB00FNHMJ6SB00E24Y6K0B00ESEM9K8B008YEUDTCB00E24Y79KB00FHAK6TIB00HRLBV7GB000O9QE66B000JJZ624B000WTY9G0B00F4BW9RMB00GB2PTH0B00AIBEP8EB009R602T2B00I1ZQXYSB00EJZV7C2B00BBLYDNMB00756J3OGB00I1ZQWT4B00131IABGB001NYHGGIB00FNHLUB8B00FZ3XFGSB006O8TJSQB001P86K6OB0058EQN1IB00GPZRZ0WB00FZ3XDH4B005PPJTZ2B00A4GOYPWB00443ZTP0B00I1ZQW1WB005PPJ8FSB00D4UMOAWB00AG439JOB008775W2EB007ZUUSBEB004015AYQB00HEU5OKUB004U7FTU0B005LR3KSQB00FNHMH4MB004TJHLI2B00FNHMQKCB008H07LY8B00AW6IC16B007QEUWDIB00KQ2EJC2B00EJZV0J2B00DYVK99EB00632MJEEB00EZUGLOAB00GPZRYNUB00FEL4GL4B001O0XN4UB004E6RBBCB00FUQZLG2B00E24XNMMB005KJ3T86B00EZUGR7GB00GNILH3CB007ZUU8P0B00A4AWEHSB00F4BW84GB0092T3TVWB00EH0ICP4B001O5ZYDIB00577W4GEB00E24XWCIB009O0W6JAB000B28L3UB00GPZRXB8B006H2PT6KB00GDKVT8SB002HHPMPMB0091I4SB4B00EKUUTYIB007GZQUDIB007GZQUDSB00I1ZQUWSB005KJ3SK0B007BKKJH6B006IXIB54B0044R5OZQB00F4BW7BKB00CPKHT4IB0044R02TOB00B85P9RKB0081K9HW8B00DJB81QCB006BU7VWIB00FHLOLHKB003IJOTYSB00HRLBQSUB00F686WSUB00F687IQAB0059B6VC6B00401IZ5CB006IBPS3EB007BKKJJYB00FK2ESBUB00E24Y7Z4B006H2PPPUB009O0W2NUB00FHCG8XEB00F4BW92CB001NYDV9EB007YHC956B00HJVP8VOB005OMVXDMB008QR9BF4B00FNHMV4SB00GBQ7BI6B00EJZVO1GB004W1IWE4B00F686Y1KB006IBQ2GGB00GS8JNN8B00E24XX36B005967G02B000NSXFQKB005L8MI7OB0092T5758B00HK2PYSYB00AV8G6T0B00FNHMXGOB00B23319GB00GT08FK2B00EVWK3D2B00HCR79F8B00FNHMTCMB005LCXYGOB004010VJUB00BCW5CUSB004P2Y64AB00EDKC56KB001GT2DZYB00E24Y8OOB000YV8L06B000FASPKCB00F4BWA58B004R5OWKIB0092T6L7GB005WJ95MSB00HFUCV4QB003WGE51OB00GPZRZJ8B00E24XSOAB00J5VXYLWB0030YV9FIB003OETO6AB00GUXYHOGB00I1ZQUNWB00DHUWH6KB00I1ZQWVCB00HQDCJ9OB00723767IB00B3W7OM6B0067O1P5WB00AIT6ZMA'
p152
tp153
bsI24
g1
(g2
(I0
tp154
g4
tp155
Rp156
(I1
(I539
tp157
g11
I00
S'B001FRA49YB001PV8M8UB009DPAAEOB00A401NPCB005O1BRLQB005HQ02Y6B008Y1YTR2B005FSMCUSB000AY4LWYB009DQH5G4B00GNGQ7FWB005HYTO6AB0094HCNFKB00EKBHS5AB000FK40R4B00HJ0JA7IB00EZ8AQ3OB007USW2J2B006O37YCOB005CD9150B000VUD7BIB0097B0LC0B009DQ46ZMB00I0EE19OB00GNU16QIB004EBBSQ6B000I09562B005CCIWISB00BHL4DFOB00CPT4CQCB00EOUP728B00ELNJEV8B00FMXQMQGB00HJ10XQOB00I02UGG8B00EE49GEEB009DQFPC0B00FNHQYMSB00EN6PX86B007SIG3OOB00H4QJ9KUB0057Z9ADGB008YUXL9AB009RPOJJMB004GLI5RYB005CCIT68B004NDFKPUB0098E8GK0B00EY65ZOCB00EZ8B78MB009DY6HAGB00F4FDBHAB008X7CV18B005708E7EB00EY5ZPAWB00AXAGANIB00HRQUH58B00F02C0HOB00FZVK95UB009NON52EB00593ZZT4B006CVWDOCB008X7CX48B00A401YU6B00GNCZKZEB0032AK39IB00EQR533WB00EWBF6XOB00EN6PW64B007MF3MWYB0097B6E94B00EZQKRQ2B003LY4YAOB00EZ8CT3EB009DLHWB2B00CSPSSYAB00GNGQG7GB00F4FDCUQB00G967TYOB00HRQUVWWB00756FOEOB00EY6KREUB00F11JVZ8B00A05V2E8B00CAWR1SAB00GNGL4W8B005LVDQCWB008PQMV4YB00EQR2S94B00A6UATLOB005FT265SB0097A35OWB000FK40OWB009DQH0GEB005708FLYB00BNH1U6MB00B472Q2IB004CGOMNEB00GI3DVH2B005T805XKB009DQ2J5QB0013EDCIEB005LVGPIOB00A0ONPDUB00HYHN14EB00J3C6T88B003LY4WZQB008GRALOOB005LVDPIWB00GJYHUCCB00ARK11FQB007SIG650B009DLACVYB0087417Z8B005FSMCCQB00EPFZW1IB00EPFOYDAB00GNU11HMB004EBJ3N6B00ENR239WB009IFA0ASB00EQR4T96B009CFZPWCB00598KUEYB009DPA9HCB005FZMSB4B006WO7TH0B00GJVSDR6B00EN6R6GSB00BEMH4AMB00HJ0JE7OB00GMPYS00B00GNCYR6WB00FOB44J8B00EZ8HLVEB001HUQ2CWB005947D4SB00EQR5EUOB00F25MF6UB0032VYYY2B007MF3KJ4B001A06UQWB000MC8VDEB00EYD81LOB0033QCBBYB00EZ8IHD0B00GG8ACXKB0097B6E1CB00EY5ZC5KB00EKBHK44B00GNR4NIEB00EQR2Q64B00GO2GPQGB00GPNHEDWB005CD8XZYB00F4FDE3GB0041OH7WKB007SIG5NSB00EZQE7UYB00FOKSOWWB0047BMDOYB005N7G2OSB00ENR7PBSB00JG76RXCB00GM4WRCCB009DLHXIEB006WO7RY0B002H9XWNYB00FLCBBG4B00GJKT5MEB002HA5F06B00FYHKS1UB007SIG5LKB0032E2MKMB00EZ88UJQB00EN6OQ2KB00GNCZFW2B00GYPM1GQB00EZ8HZFGB00DT1FNTAB00HRQUOU6B005LVDROEB00EZ8DQK4B00915QOGEB0097B6DSQB005ETNN38B007SIG5W4B00EZ8DDDOB00EQR2O7UB00G207J4WB00FOKSTNGB008YXI4VWB003WQXURYB009YN2ROGB00GJKTCFEB00DZI0810B00GMPZ0L6B005FT269OB00F25KETKB00B059R8KB00A0VCF4IB00GN36W9GB005FSMD2UB008PQN2Z6B00B5KUEUKB00A05O4YIB00EDWE9MQB009DLHQS6B005LVG8ZYB00GNCYXG6B002YM8DB0B00E96BBVIB00GND00FIB005N0BN8KB00EQR1FGGB005FSMCRGB002A1EJ9KB005CD8YIUB00G207R5SB005O1BRW0B00E96BDUWB007SIG600B00ESXCKA8B00EZ8B3CMB0032AW7BAB00EQR5CMEB00EZ8I8IEB00F8HHCVAB00AEAYWVYB0002Z1LHOB000AY0QN2B00EQR7U56B00A1FDGF0B008YXI516B001GJST98B005FZNWJQB003LY4Z58B00ECRKWUKB00FZ36LG4B00GJKT916B005NPMPKUB00EY5Z7CSB00EKBI3S6B000AY4LQAB00CE2KIHMB00F25MDJEB00B2Y6GJWB00EY6KS44B003YLT67UB00EZ8CTUMB00HZ2NVT8B009EAH2R6B00GJKT6WIB009EAH43IB00EQR2W5OB00E6IBBCSB00EY5YYCCB00A1F3XQWB002WWTA9QB00FDZASQ8B00F8H6BVWB00EQR5AFIB00GZ56TW2B00FNHP1KOB00GNGQJDWB008UU212CB00EY5Z0P2B00EZ8AZS0B00E8PWJRUB0012MBGRGB0094HCLJ8B0091L0NHYB005FT23L0B004FNPL5CB00GNCZ2U2B00AHMIQ0CB005EN05ASB0093DKYUQB00BBQMJOWB006WO7SRGB00GNGQLUIB00F7NIGR4B00ESXCNPKB00FL2DJ82B00ESXCN32B00E96BF2SB00EQR2U42B00A9LLY3CB00EY6KQBOB00EZ8CR7MB00EZ88VEKB00GNGQOXCB00G4UB1ASB00A0ONQ1QB00JPMLHX8B00FQT60LSB00F4FDDLOB00E6XHXPMB00FA3TX9QB00ESX8GAQB0098E8GQYB00756SV4YB00G61777QB009DLA9X0B00F68306WB009DQHKQYB00EN6NSIIB00G6UQXAYB00GAQR9I4B005FZNMQ4B003LY4YDGB00DBAM9GEB00F896YRQB00AO7BVZ2B00AZNR69AB003LS3GPOB009DLI1CQB00G5PC8FOB00GG8AJZQB008H6YKQEB007USW2I8B0002JO82KB000S5K2R8B0091L0MTIB00E96BCJEB0098JW4EYB009FBCT18B00E96BB7WB00592MZOIB00FNHPKDCB009G42VSKB00F25J0GIB00F25KTW2B00HRQV02MB00GNCZVEOB00GHX083SB00CFNEW22B005HYTNSEB00B5O7ZYYB005OAQ8HUB00HMTHWMQB00AZNR6KEB0042KJJB0B00GNGQ3HEB005FT24PKB000WH7CVGB006M6ABG4B00HJ110V6B00AZNR3Z2B00EQR3I9IB00AQ5S3YYB009FBCQN4B006YSIMHUB00F0TNYRWB00GJYHVDKB009DPABTSB00GJB9DWAB00G6UQ8SGB006F72D16B00B5KUD92B00756PWQ4B00CLSUTT6B00HJ0ENC0B00GBNB4IWB00GG3ETE8B00EZ88XOIB00EZ8DTMEB009QYD7A6B00EZ8BS4AB00EZ8CPUQB0098E8GFAB005FSMCYEB005WF9Q4YB006WO7T7KB00A0BOAGEB00CLSUR84B00F4FD8AAB008X7CUDMB008SM3ZCMB00FDXV7DIB00FEAB3JIB009V196OUB00A0C1LJ2B00GNGQC1GB00EQR3RE4B00EZ8B6BAB00GNGMK62B00GNCZ9PAB00GNCZQ9EB005LVDPSWB00FYPPSK8B00EZ8EZ2CB0032WJ9DWB00EZ8ASU0B00EQR4UT0B00AHMIO7CB00DSXTDPOB00BSXM9MUB00G6UQL1AB009FGPOXSB00EKBPLPYB00CAWR50YB00434KWQQB00EZ8COLGB00G6UQGJCB0032KRGU2B00H58CEIQB0074ARGC4B0094HCKDKB005FZNN7CB00EQR4K2WB0099SDE8YB00HMUTDO0B00GCI41AOB00EY5YW10B00E96BAGOB00DZI08NIB005SDUJFKB00EZ8DEZ6B00ENR598OB00HAZSXT8B00B1MBQMWB00HRQULNGB007IOBKCIB00G6UQCLEB0098E8MUYB007SIG5R4B00G2T8XXYB007U3GA86B005941XO4B009CFZRWUB004CS23KQB00GG8H03UB005HYTO2OB00918YTHWB00EKBPASMB009DLI3TCB00915QP22B00ESXATYWB005BY4AGUB007MF3L7KB0012TOCQQB00GT2WOCKB005FSMCJOB00C513MJIB00EZ8CSD0B00C4XEDLSB00HQPB4DOB0097B6EQ2B00ESY7RIMB0097B0KZIB00G3HUM5MB00EA2S8Z8B0097B6EGMB00F6VC2RWB00G967U0CB007MF3MD8B00DII4QXIB0092T8V92B008Y1YVV6B005EN05FIB006WO7SD0B000AUE4NYB0074ARGTCB004AKZM36B00GAH2474B00IQO4LFMB00B5KUE1YB000WG23IOB008X7CWKSB004NDJKAGB00B5KUFS6B00F8HCZVCB005QAAMFMB00EZ8AROWB0097MLTLQB00H5NEB8WB00C4XHGXUB00FA43P4EB005FSMCNKB00G6UQP02B00G6UQ5H0B005RQWX48B004FNNT38B00EZ88OU6B00A0RSZAKB00EQR30SMB005FZMZQWB005XGVYNSB009RPOD7KB00AQGADZ0B002HNOI8IB00EZ88YS8B008SM3XLKB00BCD2QIIB00GAP374KB005LVDQ3GB00EZ8BHMIB00AEBZGFOB0097B6EWGB0098E8D1CB009DLHVA4B0092T25Q2B000J4C000B0098E8DRGB00FYVZKGOB004EBKSG2B00598IAVEB00EQR32KIB0032AEDVWB00GMPYRMEB00A6UARM0B00756LDIAB00EZ8HF0GB00G6UQRRIB00GMPYRTMB007RI9VKIB005FT246YB00EZ8H9B6B00BPOJZ1UB00EKBSNMWB00E96B9UGB003BF29D2B008X7D01SB00AHIW3VOB005FZNLSIB0090BLTHSB00GPNHBGWB00B61YDH8B00GG83OIUB0092T92HWB00EZ8CRU4B00E7Y3IV8B00GM4WLJGB00G64M1TMB00EZ8HEEIB00EZ8CULUB005BYCKAIB009SRM9AK'
p158
tp159
bs.